
ServoToToSix.elf:     file format elf32-avr

Sections:
Idx Name          Size      VMA       LMA       File off  Algn
  0 .data         0000066e  00800100  00001662  000016f6  2**0
                  CONTENTS, ALLOC, LOAD, DATA
  1 .text         00001662  00000000  00000000  00000094  2**1
                  CONTENTS, ALLOC, LOAD, READONLY, CODE
  2 .bss          00000044  0080076e  0080076e  00001d64  2**0
                  ALLOC
  3 .comment      00000030  00000000  00000000  00001d64  2**0
                  CONTENTS, READONLY
  4 .note.gnu.avr.deviceinfo 00000040  00000000  00000000  00001d94  2**2
                  CONTENTS, READONLY
  5 .debug_aranges 00000210  00000000  00000000  00001dd4  2**0
                  CONTENTS, READONLY, DEBUGGING
  6 .debug_info   000045f3  00000000  00000000  00001fe4  2**0
                  CONTENTS, READONLY, DEBUGGING
  7 .debug_abbrev 00000c3d  00000000  00000000  000065d7  2**0
                  CONTENTS, READONLY, DEBUGGING
  8 .debug_line   000011d7  00000000  00000000  00007214  2**0
                  CONTENTS, READONLY, DEBUGGING
  9 .debug_frame  000006b0  00000000  00000000  000083ec  2**2
                  CONTENTS, READONLY, DEBUGGING
 10 .debug_str    00000d59  00000000  00000000  00008a9c  2**0
                  CONTENTS, READONLY, DEBUGGING
 11 .debug_loc    00001d15  00000000  00000000  000097f5  2**0
                  CONTENTS, READONLY, DEBUGGING
 12 .debug_ranges 00000208  00000000  00000000  0000b50a  2**0
                  CONTENTS, READONLY, DEBUGGING

Disassembly of section .text:

00000000 <__vectors>:
       0:	0c 94 36 00 	jmp	0x6c	; 0x6c <__dtors_end>
       4:	0c 94 60 00 	jmp	0xc0	; 0xc0 <__vector_1>
       8:	0c 94 5e 00 	jmp	0xbc	; 0xbc <__bad_interrupt>
       c:	0c 94 5e 00 	jmp	0xbc	; 0xbc <__bad_interrupt>
      10:	0c 94 b6 00 	jmp	0x16c	; 0x16c <__vector_4>
      14:	0c 94 5e 00 	jmp	0xbc	; 0xbc <__bad_interrupt>
      18:	0c 94 5e 00 	jmp	0xbc	; 0xbc <__bad_interrupt>
      1c:	0c 94 16 01 	jmp	0x22c	; 0x22c <__vector_7>
      20:	0c 94 5e 00 	jmp	0xbc	; 0xbc <__bad_interrupt>
      24:	0c 94 5e 00 	jmp	0xbc	; 0xbc <__bad_interrupt>
      28:	0c 94 5e 00 	jmp	0xbc	; 0xbc <__bad_interrupt>
      2c:	0c 94 5e 00 	jmp	0xbc	; 0xbc <__bad_interrupt>
      30:	0c 94 5e 00 	jmp	0xbc	; 0xbc <__bad_interrupt>
      34:	0c 94 5e 00 	jmp	0xbc	; 0xbc <__bad_interrupt>
      38:	0c 94 5e 00 	jmp	0xbc	; 0xbc <__bad_interrupt>
      3c:	0c 94 5e 00 	jmp	0xbc	; 0xbc <__bad_interrupt>
      40:	0c 94 5e 00 	jmp	0xbc	; 0xbc <__bad_interrupt>
      44:	0c 94 5e 00 	jmp	0xbc	; 0xbc <__bad_interrupt>
      48:	0c 94 5e 00 	jmp	0xbc	; 0xbc <__bad_interrupt>
      4c:	0c 94 5e 00 	jmp	0xbc	; 0xbc <__bad_interrupt>
      50:	0c 94 5e 00 	jmp	0xbc	; 0xbc <__bad_interrupt>
      54:	0c 94 5e 00 	jmp	0xbc	; 0xbc <__bad_interrupt>
      58:	0c 94 5e 00 	jmp	0xbc	; 0xbc <__bad_interrupt>
      5c:	0c 94 5e 00 	jmp	0xbc	; 0xbc <__bad_interrupt>
      60:	0c 94 5e 00 	jmp	0xbc	; 0xbc <__bad_interrupt>
      64:	0c 94 5e 00 	jmp	0xbc	; 0xbc <__bad_interrupt>

00000068 <__ctors_start>:
      68:	8b 02       	muls	r24, r27

0000006a <__ctors_end>:
      6a:	94 02       	muls	r25, r20

0000006c <__dtors_end>:
      6c:	11 24       	eor	r1, r1
      6e:	1f be       	out	0x3f, r1	; 63
      70:	cf ef       	ldi	r28, 0xFF	; 255
      72:	d8 e0       	ldi	r29, 0x08	; 8
      74:	de bf       	out	0x3e, r29	; 62
      76:	cd bf       	out	0x3d, r28	; 61

00000078 <__do_copy_data>:
      78:	17 e0       	ldi	r17, 0x07	; 7
      7a:	a0 e0       	ldi	r26, 0x00	; 0
      7c:	b1 e0       	ldi	r27, 0x01	; 1
      7e:	e2 e6       	ldi	r30, 0x62	; 98
      80:	f6 e1       	ldi	r31, 0x16	; 22
      82:	02 c0       	rjmp	.+4      	; 0x88 <__do_copy_data+0x10>
      84:	05 90       	lpm	r0, Z+
      86:	0d 92       	st	X+, r0
      88:	ae 36       	cpi	r26, 0x6E	; 110
      8a:	b1 07       	cpc	r27, r17
      8c:	d9 f7       	brne	.-10     	; 0x84 <__do_copy_data+0xc>

0000008e <__do_clear_bss>:
      8e:	27 e0       	ldi	r18, 0x07	; 7
      90:	ae e6       	ldi	r26, 0x6E	; 110
      92:	b7 e0       	ldi	r27, 0x07	; 7
      94:	01 c0       	rjmp	.+2      	; 0x98 <.do_clear_bss_start>

00000096 <.do_clear_bss_loop>:
      96:	1d 92       	st	X+, r1

00000098 <.do_clear_bss_start>:
      98:	a2 3b       	cpi	r26, 0xB2	; 178
      9a:	b2 07       	cpc	r27, r18
      9c:	e1 f7       	brne	.-8      	; 0x96 <.do_clear_bss_loop>

0000009e <__do_global_ctors>:
      9e:	10 e0       	ldi	r17, 0x00	; 0
      a0:	c5 e3       	ldi	r28, 0x35	; 53
      a2:	d0 e0       	ldi	r29, 0x00	; 0
      a4:	04 c0       	rjmp	.+8      	; 0xae <__do_global_ctors+0x10>
      a6:	21 97       	sbiw	r28, 0x01	; 1
      a8:	fe 01       	movw	r30, r28
      aa:	0e 94 91 0a 	call	0x1522	; 0x1522 <__tablejump2__>
      ae:	c4 33       	cpi	r28, 0x34	; 52
      b0:	d1 07       	cpc	r29, r17
      b2:	c9 f7       	brne	.-14     	; 0xa6 <__do_global_ctors+0x8>
      b4:	0e 94 50 01 	call	0x2a0	; 0x2a0 <main>
      b8:	0c 94 24 0b 	jmp	0x1648	; 0x1648 <__do_global_dtors>

000000bc <__bad_interrupt>:
      bc:	0c 94 00 00 	jmp	0	; 0x0 <__vectors>

000000c0 <__vector_1>:
 *  every time the switch input signal changes the logic level this ISR is called.
 *  on rising edge:  the switch timer starts the Switch timer 
 *	on falling edge: the switch timer stops and the value is evaluated to calculate the 
 *	correct settings for the tristate gates
 */
ISR(SwitchSenseInterrupt) {
      c0:	1f 92       	push	r1
      c2:	0f 92       	push	r0
      c4:	0f b6       	in	r0, 0x3f	; 63
      c6:	0f 92       	push	r0
      c8:	11 24       	eor	r1, r1
      ca:	2f 93       	push	r18
      cc:	3f 93       	push	r19
      ce:	4f 93       	push	r20
      d0:	5f 93       	push	r21
      d2:	6f 93       	push	r22
      d4:	7f 93       	push	r23
      d6:	8f 93       	push	r24
      d8:	9f 93       	push	r25
      da:	af 93       	push	r26
      dc:	bf 93       	push	r27
      de:	ef 93       	push	r30
      e0:	ff 93       	push	r31
	Servo2To6::SwitchTimer(false);
      e2:	80 e0       	ldi	r24, 0x00	; 0
      e4:	0e 94 fd 03 	call	0x7fa	; 0x7fa <_ZN9Servo2To611SwitchTimerEb>
	uint8_t cValue = TCNT0;
      e8:	86 b5       	in	r24, 0x26	; 38
	
	if(SigInSwitchInput & (1 << SigInSwitchPin)) {
      ea:	4a 9b       	sbis	0x09, 2	; 9
      ec:	0b c0       	rjmp	.+22     	; 0x104 <__vector_1+0x44>
		PORTB |= (1 << PORTB0);	//DEBUG
      ee:	28 9a       	sbi	0x05, 0	; 5
		TCNT0 = 0;
      f0:	16 bc       	out	0x26, r1	; 38
		Servo2To6::Status = ServoStatus::SigSwitchMeassure;
      f2:	81 e0       	ldi	r24, 0x01	; 1
      f4:	90 e0       	ldi	r25, 0x00	; 0
      f6:	90 93 b0 07 	sts	0x07B0, r25	; 0x8007b0 <_ZN9Servo2To66StatusE+0x1>
      fa:	80 93 af 07 	sts	0x07AF, r24	; 0x8007af <_ZN9Servo2To66StatusE>
		Servo2To6::SwitchTimer(true);
      fe:	0e 94 fd 03 	call	0x7fa	; 0x7fa <_ZN9Servo2To611SwitchTimerEb>
     102:	23 c0       	rjmp	.+70     	; 0x14a <__vector_1+0x8a>
	} else {
		PORTB &= ~(1 << PORTB0);	//DEBUG
     104:	28 98       	cbi	0x05, 0	; 5
		if (Servo2To6::Status == ServoStatus::SigSwitchMeassure) {			
     106:	20 91 af 07 	lds	r18, 0x07AF	; 0x8007af <_ZN9Servo2To66StatusE>
     10a:	30 91 b0 07 	lds	r19, 0x07B0	; 0x8007b0 <_ZN9Servo2To66StatusE+0x1>
     10e:	21 30       	cpi	r18, 0x01	; 1
     110:	31 05       	cpc	r19, r1
     112:	d9 f4       	brne	.+54     	; 0x14a <__vector_1+0x8a>
			Servo2To6::NewSwitchPosition = Servo2To6::getPosition(cValue);
     114:	0e 94 ab 03 	call	0x756	; 0x756 <_ZN9Servo2To611getPositionEh>
     118:	80 93 ae 07 	sts	0x07AE, r24	; 0x8007ae <_ZN9Servo2To617NewSwitchPositionE>
			if (Servo2To6::NewSwitchPosition != Servo2To6::SwitchPosition) {
     11c:	90 91 b1 07 	lds	r25, 0x07B1	; 0x8007b1 <_ZN9Servo2To614SwitchPositionE>
     120:	89 17       	cp	r24, r25
     122:	79 f0       	breq	.+30     	; 0x142 <__vector_1+0x82>
				Servo2To6::SwitchSenseISR(false);
     124:	80 e0       	ldi	r24, 0x00	; 0
     126:	0e 94 07 04 	call	0x80e	; 0x80e <_ZN9Servo2To614SwitchSenseISREb>
				Servo2To6::DTZValue = 0;
     12a:	10 92 ad 07 	sts	0x07AD, r1	; 0x8007ad <_ZN9Servo2To68DTZValueE>
				Servo2To6::Status = ServoStatus::setNewValues;
     12e:	82 e0       	ldi	r24, 0x02	; 2
     130:	90 e0       	ldi	r25, 0x00	; 0
     132:	90 93 b0 07 	sts	0x07B0, r25	; 0x8007b0 <_ZN9Servo2To66StatusE+0x1>
     136:	80 93 af 07 	sts	0x07AF, r24	; 0x8007af <_ZN9Servo2To66StatusE>
				Servo2To6::SigInServo1ISR(true);
     13a:	81 e0       	ldi	r24, 0x01	; 1
     13c:	0e 94 ef 03 	call	0x7de	; 0x7de <_ZN9Servo2To614SigInServo1ISREb>
     140:	04 c0       	rjmp	.+8      	; 0x14a <__vector_1+0x8a>
			} else {
				Servo2To6::Status = ServoStatus::inActive;				
     142:	10 92 b0 07 	sts	0x07B0, r1	; 0x8007b0 <_ZN9Servo2To66StatusE+0x1>
     146:	10 92 af 07 	sts	0x07AF, r1	; 0x8007af <_ZN9Servo2To66StatusE>
			} // if (Servo2To6::NewSwitchPosition != Servo2To6::SwitchPosition)
		} // if (Servo2To6::SigSwitchMeassure)
	} // if(SigInSwitchInput & (1 << SigInSwitchPin))
}
     14a:	ff 91       	pop	r31
     14c:	ef 91       	pop	r30
     14e:	bf 91       	pop	r27
     150:	af 91       	pop	r26
     152:	9f 91       	pop	r25
     154:	8f 91       	pop	r24
     156:	7f 91       	pop	r23
     158:	6f 91       	pop	r22
     15a:	5f 91       	pop	r21
     15c:	4f 91       	pop	r20
     15e:	3f 91       	pop	r19
     160:	2f 91       	pop	r18
     162:	0f 90       	pop	r0
     164:	0f be       	out	0x3f, r0	; 63
     166:	0f 90       	pop	r0
     168:	1f 90       	pop	r1
     16a:	18 95       	reti

0000016c <__vector_4>:
/**
 * \brief
 *  Signal from servo 1 changes level on PORTC3
 *
 */
ISR(SigInServo1Interrupt) {
     16c:	1f 92       	push	r1
     16e:	0f 92       	push	r0
     170:	0f b6       	in	r0, 0x3f	; 63
     172:	0f 92       	push	r0
     174:	11 24       	eor	r1, r1
     176:	2f 93       	push	r18
     178:	3f 93       	push	r19
     17a:	4f 93       	push	r20
     17c:	5f 93       	push	r21
     17e:	6f 93       	push	r22
     180:	7f 93       	push	r23
     182:	8f 93       	push	r24
     184:	9f 93       	push	r25
     186:	af 93       	push	r26
     188:	bf 93       	push	r27
     18a:	ef 93       	push	r30
     18c:	ff 93       	push	r31
	
	if(SigInInput & (1 << SigInServo1Pin)) {
     18e:	33 9b       	sbis	0x06, 3	; 6
     190:	3c c0       	rjmp	.+120    	; 0x20a <__vector_4+0x9e>
		
		if(Servo2To6::Status == ServoStatus::setNewValues) {
     192:	80 91 af 07 	lds	r24, 0x07AF	; 0x8007af <_ZN9Servo2To66StatusE>
     196:	90 91 b0 07 	lds	r25, 0x07B0	; 0x8007b0 <_ZN9Servo2To66StatusE+0x1>
     19a:	82 30       	cpi	r24, 0x02	; 2
     19c:	91 05       	cpc	r25, r1
     19e:	61 f4       	brne	.+24     	; 0x1b8 <__vector_4+0x4c>
			PORTD ^= (1 << PORTD7); //DEBUG
     1a0:	8b b1       	in	r24, 0x0b	; 11
     1a2:	80 58       	subi	r24, 0x80	; 128
     1a4:	8b b9       	out	0x0b, r24	; 11
			TCNT2 = 0;
     1a6:	10 92 b2 00 	sts	0x00B2, r1	; 0x8000b2 <__TEXT_REGION_LENGTH__+0x7e00b2>
			Servo2To6::ThreeMsCounter(true);
     1aa:	81 e0       	ldi	r24, 0x01	; 1
     1ac:	0e 94 1e 04 	call	0x83c	; 0x83c <_ZN9Servo2To614ThreeMsCounterEb>
			Servo2To6::SigInServo1ISR(false);
     1b0:	80 e0       	ldi	r24, 0x00	; 0
     1b2:	0e 94 ef 03 	call	0x7de	; 0x7de <_ZN9Servo2To614SigInServo1ISREb>
     1b6:	29 c0       	rjmp	.+82     	; 0x20a <__vector_4+0x9e>
		} else if (Servo2To6::Status == ServoStatus::PWMSynchronizing) {
     1b8:	83 30       	cpi	r24, 0x03	; 3
     1ba:	91 05       	cpc	r25, r1
     1bc:	51 f4       	brne	.+20     	; 0x1d2 <__vector_4+0x66>
			Servo2To6::Status = ServoStatus::PWMActive;
     1be:	84 e0       	ldi	r24, 0x04	; 4
     1c0:	90 e0       	ldi	r25, 0x00	; 0
     1c2:	90 93 b0 07 	sts	0x07B0, r25	; 0x8007b0 <_ZN9Servo2To66StatusE+0x1>
     1c6:	80 93 af 07 	sts	0x07AF, r24	; 0x8007af <_ZN9Servo2To66StatusE>
			Servo2To6::PWMTimer(true);
     1ca:	81 e0       	ldi	r24, 0x01	; 1
     1cc:	0e 94 0d 04 	call	0x81a	; 0x81a <_ZN9Servo2To68PWMTimerEb>
     1d0:	1c c0       	rjmp	.+56     	; 0x20a <__vector_4+0x9e>
		} else if (Servo2To6::Status == ServoStatus::PWMActive) {
     1d2:	04 97       	sbiw	r24, 0x04	; 4
     1d4:	d1 f4       	brne	.+52     	; 0x20a <__vector_4+0x9e>
			Servo2To6::DTZValue++;
     1d6:	80 91 ad 07 	lds	r24, 0x07AD	; 0x8007ad <_ZN9Servo2To68DTZValueE>
     1da:	8f 5f       	subi	r24, 0xFF	; 255
     1dc:	80 93 ad 07 	sts	0x07AD, r24	; 0x8007ad <_ZN9Servo2To68DTZValueE>
			if (Servo2To6::DTZValue >= Servo2To6::DelayValue) {
     1e0:	90 91 02 01 	lds	r25, 0x0102	; 0x800102 <_ZN9Servo2To610DelayValueE>
     1e4:	89 17       	cp	r24, r25
     1e6:	50 f0       	brcs	.+20     	; 0x1fc <__vector_4+0x90>
				Servo2To6::PWMTimer(false);
     1e8:	80 e0       	ldi	r24, 0x00	; 0
     1ea:	0e 94 0d 04 	call	0x81a	; 0x81a <_ZN9Servo2To68PWMTimerEb>
				PwmOnPort &= PwmON1To6Pins;
     1ee:	88 b1       	in	r24, 0x08	; 8
     1f0:	87 70       	andi	r24, 0x07	; 7
     1f2:	88 b9       	out	0x08, r24	; 8
				Servo2To6::Status = ServoStatus::inActive;
     1f4:	10 92 b0 07 	sts	0x07B0, r1	; 0x8007b0 <_ZN9Servo2To66StatusE+0x1>
     1f8:	10 92 af 07 	sts	0x07AF, r1	; 0x8007af <_ZN9Servo2To66StatusE>
			}
			TCNT0 = 0;
     1fc:	16 bc       	out	0x26, r1	; 38
			Servo2To6::SwitchTimer(true);	
     1fe:	81 e0       	ldi	r24, 0x01	; 1
     200:	0e 94 fd 03 	call	0x7fa	; 0x7fa <_ZN9Servo2To611SwitchTimerEb>
			Servo2To6::SwitchSenseISR(true);
     204:	81 e0       	ldi	r24, 0x01	; 1
     206:	0e 94 07 04 	call	0x80e	; 0x80e <_ZN9Servo2To614SwitchSenseISREb>
		} // if(Servo2To6::setNewValues)
	} // if(SigInSwitchInput & (1 << SigInServo1Pin))
}
     20a:	ff 91       	pop	r31
     20c:	ef 91       	pop	r30
     20e:	bf 91       	pop	r27
     210:	af 91       	pop	r26
     212:	9f 91       	pop	r25
     214:	8f 91       	pop	r24
     216:	7f 91       	pop	r23
     218:	6f 91       	pop	r22
     21a:	5f 91       	pop	r21
     21c:	4f 91       	pop	r20
     21e:	3f 91       	pop	r19
     220:	2f 91       	pop	r18
     222:	0f 90       	pop	r0
     224:	0f be       	out	0x3f, r0	; 63
     226:	0f 90       	pop	r0
     228:	1f 90       	pop	r1
     22a:	18 95       	reti

0000022c <__vector_7>:
/**
 * \brief
 *  set all tristates when no signal is high (Servo1, Servo2, PWM)
 *  to avoid disruptions on servo signals
 */
ISR(ThreeMsCountInterrupt) {
     22c:	1f 92       	push	r1
     22e:	0f 92       	push	r0
     230:	0f b6       	in	r0, 0x3f	; 63
     232:	0f 92       	push	r0
     234:	11 24       	eor	r1, r1
     236:	2f 93       	push	r18
     238:	3f 93       	push	r19
     23a:	4f 93       	push	r20
     23c:	5f 93       	push	r21
     23e:	6f 93       	push	r22
     240:	7f 93       	push	r23
     242:	8f 93       	push	r24
     244:	9f 93       	push	r25
     246:	af 93       	push	r26
     248:	bf 93       	push	r27
     24a:	ef 93       	push	r30
     24c:	ff 93       	push	r31
	PORTC ^= (1 << PORTC5);
     24e:	98 b1       	in	r25, 0x08	; 8
     250:	80 e2       	ldi	r24, 0x20	; 32
     252:	89 27       	eor	r24, r25
     254:	88 b9       	out	0x08, r24	; 8
	Servo2To6::setNewPositions();
     256:	0e 94 b9 03 	call	0x772	; 0x772 <_ZN9Servo2To615setNewPositionsEv>
	Servo2To6::ThreeMsCounter(false);
     25a:	80 e0       	ldi	r24, 0x00	; 0
     25c:	0e 94 1e 04 	call	0x83c	; 0x83c <_ZN9Servo2To614ThreeMsCounterEb>
	if (Servo2To6::Status != ServoStatus::PWMActive) {
     260:	80 91 af 07 	lds	r24, 0x07AF	; 0x8007af <_ZN9Servo2To66StatusE>
     264:	90 91 b0 07 	lds	r25, 0x07B0	; 0x8007b0 <_ZN9Servo2To66StatusE+0x1>
     268:	04 97       	sbiw	r24, 0x04	; 4
     26a:	31 f0       	breq	.+12     	; 0x278 <__vector_7+0x4c>
		Servo2To6::Status = ServoStatus::PWMSynchronizing;
     26c:	83 e0       	ldi	r24, 0x03	; 3
     26e:	90 e0       	ldi	r25, 0x00	; 0
     270:	90 93 b0 07 	sts	0x07B0, r25	; 0x8007b0 <_ZN9Servo2To66StatusE+0x1>
     274:	80 93 af 07 	sts	0x07AF, r24	; 0x8007af <_ZN9Servo2To66StatusE>
	}
	Servo2To6::SigInServo1ISR(true);
     278:	81 e0       	ldi	r24, 0x01	; 1
     27a:	0e 94 ef 03 	call	0x7de	; 0x7de <_ZN9Servo2To614SigInServo1ISREb>
}
     27e:	ff 91       	pop	r31
     280:	ef 91       	pop	r30
     282:	bf 91       	pop	r27
     284:	af 91       	pop	r26
     286:	9f 91       	pop	r25
     288:	8f 91       	pop	r24
     28a:	7f 91       	pop	r23
     28c:	6f 91       	pop	r22
     28e:	5f 91       	pop	r21
     290:	4f 91       	pop	r20
     292:	3f 91       	pop	r19
     294:	2f 91       	pop	r18
     296:	0f 90       	pop	r0
     298:	0f be       	out	0x3f, r0	; 63
     29a:	0f 90       	pop	r0
     29c:	1f 90       	pop	r1
     29e:	18 95       	reti

000002a0 <main>:
#include <usart_helpers.h>

ServoEEPROM initValues;
myUart uart;

int main(void) {
     2a0:	cf 93       	push	r28
     2a2:	df 93       	push	r29
     2a4:	cd b7       	in	r28, 0x3d	; 61
     2a6:	de b7       	in	r29, 0x3e	; 62
     2a8:	c4 5d       	subi	r28, 0xD4	; 212
     2aa:	d1 09       	sbc	r29, r1
     2ac:	0f b6       	in	r0, 0x3f	; 63
     2ae:	f8 94       	cli
     2b0:	de bf       	out	0x3e, r29	; 62
     2b2:	0f be       	out	0x3f, r0	; 63
     2b4:	cd bf       	out	0x3d, r28	; 61
	//initValues.setPWMDelay((uint16_t)500, true);

	


	initValues.getInitValues(true);
     2b6:	41 e0       	ldi	r20, 0x01	; 1
     2b8:	60 e7       	ldi	r22, 0x70	; 112
     2ba:	77 e0       	ldi	r23, 0x07	; 7
     2bc:	ce 01       	movw	r24, r28
     2be:	01 96       	adiw	r24, 0x01	; 1
     2c0:	0e 94 d8 04 	call	0x9b0	; 0x9b0 <_ZN11ServoEEPROM13getInitValuesEb>

	bool isActiveUart = ((UARTPin & (1 << UARTVcc)) > 0);
	if(isActiveUart) {
     2c4:	4e 9b       	sbis	0x09, 6	; 9
     2c6:	15 c0       	rjmp	.+42     	; 0x2f2 <main+0x52>
		uart.enable();		
     2c8:	8e e6       	ldi	r24, 0x6E	; 110
     2ca:	97 e0       	ldi	r25, 0x07	; 7
     2cc:	0e 94 eb 02 	call	0x5d6	; 0x5d6 <_ZN6myUart6enableEv>
		usartHelpers::MainMenu();
     2d0:	0e 94 6d 08 	call	0x10da	; 0x10da <_ZN12usartHelpers8MainMenuEv>
		uart.cls();
     2d4:	8e e6       	ldi	r24, 0x6E	; 110
     2d6:	97 e0       	ldi	r25, 0x07	; 7
     2d8:	0e 94 16 03 	call	0x62c	; 0x62c <_ZN6myUart3clsEv>
		uart.write((char*)"Setup per UART is inactive and Port multiplier is running .....\0");		
     2dc:	40 e0       	ldi	r20, 0x00	; 0
     2de:	63 e0       	ldi	r22, 0x03	; 3
     2e0:	71 e0       	ldi	r23, 0x01	; 1
     2e2:	8e e6       	ldi	r24, 0x6E	; 110
     2e4:	97 e0       	ldi	r25, 0x07	; 7
     2e6:	0e 94 3e 03 	call	0x67c	; 0x67c <_ZN6myUart5writeEPcb>
		uart.disable();		
     2ea:	8e e6       	ldi	r24, 0x6E	; 110
     2ec:	97 e0       	ldi	r25, 0x07	; 7
     2ee:	0e 94 f1 02 	call	0x5e2	; 0x5e2 <_ZN6myUart7disableEv>
	}

	sei();
     2f2:	78 94       	sei

	Servo2To6::init(initValues.getInitValues().servoType, initValues.getInitValues().SNullStellung, initValues.getInitValues().AngleRange, initValues.getInitValues().PWMDelay);
     2f4:	40 e0       	ldi	r20, 0x00	; 0
     2f6:	60 e7       	ldi	r22, 0x70	; 112
     2f8:	77 e0       	ldi	r23, 0x07	; 7
     2fa:	ce 01       	movw	r24, r28
     2fc:	01 96       	adiw	r24, 0x01	; 1
     2fe:	0e 94 d8 04 	call	0x9b0	; 0x9b0 <_ZN11ServoEEPROM13getInitValuesEb>
     302:	ec a8       	ldd	r14, Y+52	; 0x34
     304:	fd a8       	ldd	r15, Y+53	; 0x35
     306:	40 e0       	ldi	r20, 0x00	; 0
     308:	60 e7       	ldi	r22, 0x70	; 112
     30a:	77 e0       	ldi	r23, 0x07	; 7
     30c:	ce 01       	movw	r24, r28
     30e:	c6 96       	adiw	r24, 0x36	; 54
     310:	0e 94 d8 04 	call	0x9b0	; 0x9b0 <_ZN11ServoEEPROM13getInitValuesEb>
     314:	a9 96       	adiw	r28, 0x29	; 41
     316:	0f ad       	ldd	r16, Y+63	; 0x3f
     318:	a9 97       	sbiw	r28, 0x29	; 41
     31a:	40 e0       	ldi	r20, 0x00	; 0
     31c:	60 e7       	ldi	r22, 0x70	; 112
     31e:	77 e0       	ldi	r23, 0x07	; 7
     320:	ce 01       	movw	r24, r28
     322:	85 59       	subi	r24, 0x95	; 149
     324:	9f 4f       	sbci	r25, 0xFF	; 255
     326:	0e 94 d8 04 	call	0x9b0	; 0x9b0 <_ZN11ServoEEPROM13getInitValuesEb>
     32a:	c4 56       	subi	r28, 0x64	; 100
     32c:	df 4f       	sbci	r29, 0xFF	; 255
     32e:	18 81       	ld	r17, Y
     330:	cc 59       	subi	r28, 0x9C	; 156
     332:	d0 40       	sbci	r29, 0x00	; 0
     334:	40 e0       	ldi	r20, 0x00	; 0
     336:	60 e7       	ldi	r22, 0x70	; 112
     338:	77 e0       	ldi	r23, 0x07	; 7
     33a:	ce 01       	movw	r24, r28
     33c:	80 56       	subi	r24, 0x60	; 96
     33e:	9f 4f       	sbci	r25, 0xFF	; 255
     340:	0e 94 d8 04 	call	0x9b0	; 0x9b0 <_ZN11ServoEEPROM13getInitValuesEb>
     344:	97 01       	movw	r18, r14
     346:	40 2f       	mov	r20, r16
     348:	61 2f       	mov	r22, r17
     34a:	c1 53       	subi	r28, 0x31	; 49
     34c:	df 4f       	sbci	r29, 0xFF	; 255
     34e:	88 81       	ld	r24, Y
     350:	99 81       	ldd	r25, Y+1	; 0x01
     352:	cf 5c       	subi	r28, 0xCF	; 207
     354:	d0 40       	sbci	r29, 0x00	; 0
     356:	0e 94 6f 04 	call	0x8de	; 0x8de <_ZN9Servo2To64initE9ServoTypeahj>
	//DEBUG
	uart.enable();
     35a:	8e e6       	ldi	r24, 0x6E	; 110
     35c:	97 e0       	ldi	r25, 0x07	; 7
     35e:	0e 94 eb 02 	call	0x5d6	; 0x5d6 <_ZN6myUart6enableEv>
	uart.cls();
     362:	8e e6       	ldi	r24, 0x6E	; 110
     364:	97 e0       	ldi	r25, 0x07	; 7
     366:	0e 94 16 03 	call	0x62c	; 0x62c <_ZN6myUart3clsEv>
	uart.write((char*)"Current EEPROM Values!\0", true);
     36a:	41 e0       	ldi	r20, 0x01	; 1
     36c:	64 e4       	ldi	r22, 0x44	; 68
     36e:	71 e0       	ldi	r23, 0x01	; 1
     370:	8e e6       	ldi	r24, 0x6E	; 110
     372:	97 e0       	ldi	r25, 0x07	; 7
     374:	0e 94 3e 03 	call	0x67c	; 0x67c <_ZN6myUart5writeEPcb>
	uart.write((char*)"SerienNr: \0"); uart.write(initValues.getInitValues().SerialNr, true);
     378:	40 e0       	ldi	r20, 0x00	; 0
     37a:	6c e5       	ldi	r22, 0x5C	; 92
     37c:	71 e0       	ldi	r23, 0x01	; 1
     37e:	8e e6       	ldi	r24, 0x6E	; 110
     380:	97 e0       	ldi	r25, 0x07	; 7
     382:	0e 94 3e 03 	call	0x67c	; 0x67c <_ZN6myUart5writeEPcb>
     386:	40 e0       	ldi	r20, 0x00	; 0
     388:	60 e7       	ldi	r22, 0x70	; 112
     38a:	77 e0       	ldi	r23, 0x07	; 7
     38c:	ce 01       	movw	r24, r28
     38e:	01 96       	adiw	r24, 0x01	; 1
     390:	0e 94 d8 04 	call	0x9b0	; 0x9b0 <_ZN11ServoEEPROM13getInitValuesEb>
     394:	69 81       	ldd	r22, Y+1	; 0x01
     396:	7a 81       	ldd	r23, Y+2	; 0x02
     398:	41 e0       	ldi	r20, 0x01	; 1
     39a:	8e e6       	ldi	r24, 0x6E	; 110
     39c:	97 e0       	ldi	r25, 0x07	; 7
     39e:	0e 94 85 03 	call	0x70a	; 0x70a <_ZN6myUart5writeEjb>
	uart.write((char*)"Author:   \0"); uart.write((char*)initValues.getInitValues().author, true);
     3a2:	40 e0       	ldi	r20, 0x00	; 0
     3a4:	68 e6       	ldi	r22, 0x68	; 104
     3a6:	71 e0       	ldi	r23, 0x01	; 1
     3a8:	8e e6       	ldi	r24, 0x6E	; 110
     3aa:	97 e0       	ldi	r25, 0x07	; 7
     3ac:	0e 94 3e 03 	call	0x67c	; 0x67c <_ZN6myUart5writeEPcb>
     3b0:	40 e0       	ldi	r20, 0x00	; 0
     3b2:	60 e7       	ldi	r22, 0x70	; 112
     3b4:	77 e0       	ldi	r23, 0x07	; 7
     3b6:	ce 01       	movw	r24, r28
     3b8:	01 96       	adiw	r24, 0x01	; 1
     3ba:	0e 94 d8 04 	call	0x9b0	; 0x9b0 <_ZN11ServoEEPROM13getInitValuesEb>
     3be:	41 e0       	ldi	r20, 0x01	; 1
     3c0:	be 01       	movw	r22, r28
     3c2:	6d 5f       	subi	r22, 0xFD	; 253
     3c4:	7f 4f       	sbci	r23, 0xFF	; 255
     3c6:	8e e6       	ldi	r24, 0x6E	; 110
     3c8:	97 e0       	ldi	r25, 0x07	; 7
     3ca:	0e 94 3e 03 	call	0x67c	; 0x67c <_ZN6myUart5writeEPcb>
	uart.write((char*)"Company:  \0"); uart.write((char*)initValues.getInitValues().company, true);
     3ce:	40 e0       	ldi	r20, 0x00	; 0
     3d0:	64 e7       	ldi	r22, 0x74	; 116
     3d2:	71 e0       	ldi	r23, 0x01	; 1
     3d4:	8e e6       	ldi	r24, 0x6E	; 110
     3d6:	97 e0       	ldi	r25, 0x07	; 7
     3d8:	0e 94 3e 03 	call	0x67c	; 0x67c <_ZN6myUart5writeEPcb>
     3dc:	40 e0       	ldi	r20, 0x00	; 0
     3de:	60 e7       	ldi	r22, 0x70	; 112
     3e0:	77 e0       	ldi	r23, 0x07	; 7
     3e2:	ce 01       	movw	r24, r28
     3e4:	01 96       	adiw	r24, 0x01	; 1
     3e6:	0e 94 d8 04 	call	0x9b0	; 0x9b0 <_ZN11ServoEEPROM13getInitValuesEb>
     3ea:	41 e0       	ldi	r20, 0x01	; 1
     3ec:	be 01       	movw	r22, r28
     3ee:	69 5e       	subi	r22, 0xE9	; 233
     3f0:	7f 4f       	sbci	r23, 0xFF	; 255
     3f2:	8e e6       	ldi	r24, 0x6E	; 110
     3f4:	97 e0       	ldi	r25, 0x07	; 7
     3f6:	0e 94 3e 03 	call	0x67c	; 0x67c <_ZN6myUart5writeEPcb>
	uart.write((char*)"Version:  \0"); uart.write(initValues.getInitValues().version, true);
     3fa:	40 e0       	ldi	r20, 0x00	; 0
     3fc:	60 e8       	ldi	r22, 0x80	; 128
     3fe:	71 e0       	ldi	r23, 0x01	; 1
     400:	8e e6       	ldi	r24, 0x6E	; 110
     402:	97 e0       	ldi	r25, 0x07	; 7
     404:	0e 94 3e 03 	call	0x67c	; 0x67c <_ZN6myUart5writeEPcb>
     408:	40 e0       	ldi	r20, 0x00	; 0
     40a:	60 e7       	ldi	r22, 0x70	; 112
     40c:	77 e0       	ldi	r23, 0x07	; 7
     40e:	ce 01       	movw	r24, r28
     410:	01 96       	adiw	r24, 0x01	; 1
     412:	0e 94 d8 04 	call	0x9b0	; 0x9b0 <_ZN11ServoEEPROM13getInitValuesEb>
     416:	41 e0       	ldi	r20, 0x01	; 1
     418:	be 01       	movw	r22, r28
     41a:	65 5d       	subi	r22, 0xD5	; 213
     41c:	7f 4f       	sbci	r23, 0xFF	; 255
     41e:	8e e6       	ldi	r24, 0x6E	; 110
     420:	97 e0       	ldi	r25, 0x07	; 7
     422:	0e 94 3e 03 	call	0x67c	; 0x67c <_ZN6myUart5writeEPcb>
	uart.LfCr();
     426:	8e e6       	ldi	r24, 0x6E	; 110
     428:	97 e0       	ldi	r25, 0x07	; 7
     42a:	0e 94 f7 02 	call	0x5ee	; 0x5ee <_ZN6myUart4LfCrEv>
	uart.write((char*)"1 Servotype:  \0"); usartHelpers::ServoTypeMenu(initValues.getInitValues().servoType);
     42e:	40 e0       	ldi	r20, 0x00	; 0
     430:	6c e8       	ldi	r22, 0x8C	; 140
     432:	71 e0       	ldi	r23, 0x01	; 1
     434:	8e e6       	ldi	r24, 0x6E	; 110
     436:	97 e0       	ldi	r25, 0x07	; 7
     438:	0e 94 3e 03 	call	0x67c	; 0x67c <_ZN6myUart5writeEPcb>
     43c:	40 e0       	ldi	r20, 0x00	; 0
     43e:	60 e7       	ldi	r22, 0x70	; 112
     440:	77 e0       	ldi	r23, 0x07	; 7
     442:	ce 01       	movw	r24, r28
     444:	01 96       	adiw	r24, 0x01	; 1
     446:	0e 94 d8 04 	call	0x9b0	; 0x9b0 <_ZN11ServoEEPROM13getInitValuesEb>
     44a:	88 a9       	ldd	r24, Y+48	; 0x30
     44c:	99 a9       	ldd	r25, Y+49	; 0x31
     44e:	0e 94 33 05 	call	0xa66	; 0xa66 <_ZN12usartHelpers13ServoTypeMenuE9ServoType>
	uart.write((char*)"2 Zeroing:    \0"); uart.write((uint16_t)initValues.getInitValues().SNullStellung); uart.write((char*)" degree\0", true);
     452:	40 e0       	ldi	r20, 0x00	; 0
     454:	6c e9       	ldi	r22, 0x9C	; 156
     456:	71 e0       	ldi	r23, 0x01	; 1
     458:	8e e6       	ldi	r24, 0x6E	; 110
     45a:	97 e0       	ldi	r25, 0x07	; 7
     45c:	0e 94 3e 03 	call	0x67c	; 0x67c <_ZN6myUart5writeEPcb>
     460:	40 e0       	ldi	r20, 0x00	; 0
     462:	60 e7       	ldi	r22, 0x70	; 112
     464:	77 e0       	ldi	r23, 0x07	; 7
     466:	ce 01       	movw	r24, r28
     468:	01 96       	adiw	r24, 0x01	; 1
     46a:	0e 94 d8 04 	call	0x9b0	; 0x9b0 <_ZN11ServoEEPROM13getInitValuesEb>
     46e:	6a a9       	ldd	r22, Y+50	; 0x32
     470:	06 2e       	mov	r0, r22
     472:	00 0c       	add	r0, r0
     474:	77 0b       	sbc	r23, r23
     476:	40 e0       	ldi	r20, 0x00	; 0
     478:	8e e6       	ldi	r24, 0x6E	; 110
     47a:	97 e0       	ldi	r25, 0x07	; 7
     47c:	0e 94 85 03 	call	0x70a	; 0x70a <_ZN6myUart5writeEjb>
     480:	41 e0       	ldi	r20, 0x01	; 1
     482:	6c ea       	ldi	r22, 0xAC	; 172
     484:	71 e0       	ldi	r23, 0x01	; 1
     486:	8e e6       	ldi	r24, 0x6E	; 110
     488:	97 e0       	ldi	r25, 0x07	; 7
     48a:	0e 94 3e 03 	call	0x67c	; 0x67c <_ZN6myUart5writeEPcb>
	uart.write((char*)"3 Anglerange: \0"); uart.write((uint16_t)initValues.getInitValues().AngleRange); uart.write((char*)" degree\0", true);
     48e:	40 e0       	ldi	r20, 0x00	; 0
     490:	65 eb       	ldi	r22, 0xB5	; 181
     492:	71 e0       	ldi	r23, 0x01	; 1
     494:	8e e6       	ldi	r24, 0x6E	; 110
     496:	97 e0       	ldi	r25, 0x07	; 7
     498:	0e 94 3e 03 	call	0x67c	; 0x67c <_ZN6myUart5writeEPcb>
     49c:	40 e0       	ldi	r20, 0x00	; 0
     49e:	60 e7       	ldi	r22, 0x70	; 112
     4a0:	77 e0       	ldi	r23, 0x07	; 7
     4a2:	ce 01       	movw	r24, r28
     4a4:	01 96       	adiw	r24, 0x01	; 1
     4a6:	0e 94 d8 04 	call	0x9b0	; 0x9b0 <_ZN11ServoEEPROM13getInitValuesEb>
     4aa:	6b a9       	ldd	r22, Y+51	; 0x33
     4ac:	70 e0       	ldi	r23, 0x00	; 0
     4ae:	40 e0       	ldi	r20, 0x00	; 0
     4b0:	8e e6       	ldi	r24, 0x6E	; 110
     4b2:	97 e0       	ldi	r25, 0x07	; 7
     4b4:	0e 94 85 03 	call	0x70a	; 0x70a <_ZN6myUart5writeEjb>
     4b8:	41 e0       	ldi	r20, 0x01	; 1
     4ba:	6c ea       	ldi	r22, 0xAC	; 172
     4bc:	71 e0       	ldi	r23, 0x01	; 1
     4be:	8e e6       	ldi	r24, 0x6E	; 110
     4c0:	97 e0       	ldi	r25, 0x07	; 7
     4c2:	0e 94 3e 03 	call	0x67c	; 0x67c <_ZN6myUart5writeEPcb>
	uart.write((char*)"4 PWM delay:  \0"); uart.write((uint16_t)initValues.getInitValues().PWMDelay); uart.write((char*)"ms\0", true);
     4c6:	40 e0       	ldi	r20, 0x00	; 0
     4c8:	65 ec       	ldi	r22, 0xC5	; 197
     4ca:	71 e0       	ldi	r23, 0x01	; 1
     4cc:	8e e6       	ldi	r24, 0x6E	; 110
     4ce:	97 e0       	ldi	r25, 0x07	; 7
     4d0:	0e 94 3e 03 	call	0x67c	; 0x67c <_ZN6myUart5writeEPcb>
     4d4:	40 e0       	ldi	r20, 0x00	; 0
     4d6:	60 e7       	ldi	r22, 0x70	; 112
     4d8:	77 e0       	ldi	r23, 0x07	; 7
     4da:	ce 01       	movw	r24, r28
     4dc:	01 96       	adiw	r24, 0x01	; 1
     4de:	0e 94 d8 04 	call	0x9b0	; 0x9b0 <_ZN11ServoEEPROM13getInitValuesEb>
     4e2:	6c a9       	ldd	r22, Y+52	; 0x34
     4e4:	7d a9       	ldd	r23, Y+53	; 0x35
     4e6:	40 e0       	ldi	r20, 0x00	; 0
     4e8:	8e e6       	ldi	r24, 0x6E	; 110
     4ea:	97 e0       	ldi	r25, 0x07	; 7
     4ec:	0e 94 85 03 	call	0x70a	; 0x70a <_ZN6myUart5writeEjb>
     4f0:	41 e0       	ldi	r20, 0x01	; 1
     4f2:	65 ed       	ldi	r22, 0xD5	; 213
     4f4:	71 e0       	ldi	r23, 0x01	; 1
     4f6:	8e e6       	ldi	r24, 0x6E	; 110
     4f8:	97 e0       	ldi	r25, 0x07	; 7
     4fa:	0e 94 3e 03 	call	0x67c	; 0x67c <_ZN6myUart5writeEPcb>
	uart.LfCr();
     4fe:	8e e6       	ldi	r24, 0x6E	; 110
     500:	97 e0       	ldi	r25, 0x07	; 7
     502:	0e 94 f7 02 	call	0x5ee	; 0x5ee <_ZN6myUart4LfCrEv>
	uart.disable();
     506:	8e e6       	ldi	r24, 0x6E	; 110
     508:	97 e0       	ldi	r25, 0x07	; 7
     50a:	0e 94 f1 02 	call	0x5e2	; 0x5e2 <_ZN6myUart7disableEv>


	DDRB |= (1 << PORTB0); //DEBUG: 
     50e:	20 9a       	sbi	0x04, 0	; 4
	DDRC |= (1 << PORTC5);
     510:	3d 9a       	sbi	0x07, 5	; 7
	DDRD |= (1 << PORTD7);
     512:	57 9a       	sbi	0x0a, 7	; 10
     514:	ff cf       	rjmp	.-2      	; 0x514 <__FUSE_REGION_LENGTH__+0x114>

00000516 <_GLOBAL__sub_I___vector_1>:

#include <General.h>
#include <myISRs.h>
#include <usart_helpers.h>

ServoEEPROM initValues;
     516:	80 e7       	ldi	r24, 0x70	; 112
     518:	97 e0       	ldi	r25, 0x07	; 7
     51a:	0e 94 f0 04 	call	0x9e0	; 0x9e0 <_ZN11ServoEEPROMC1Ev>
myUart uart;
     51e:	8e e6       	ldi	r24, 0x6E	; 110
     520:	97 e0       	ldi	r25, 0x07	; 7
     522:	0e 94 9d 02 	call	0x53a	; 0x53a <_ZN6myUartC1Ev>
     526:	08 95       	ret

00000528 <_GLOBAL__sub_D___vector_1>:
     528:	8e e6       	ldi	r24, 0x6E	; 110
     52a:	97 e0       	ldi	r25, 0x07	; 7
     52c:	0e 94 ad 02 	call	0x55a	; 0x55a <_ZN6myUartD1Ev>

#include <General.h>
#include <myISRs.h>
#include <usart_helpers.h>

ServoEEPROM initValues;
     530:	80 e7       	ldi	r24, 0x70	; 112
     532:	97 e0       	ldi	r25, 0x07	; 7
     534:	0e 94 32 05 	call	0xa64	; 0xa64 <_ZN11ServoEEPROMD1Ev>
     538:	08 95       	ret

0000053a <_ZN6myUartC1Ev>:
 *  default constructor 
 *  inits the UART0 Interface -> Baud, 8 Databits, 1 stop, no parity
 * 
 * \return 
 */
myUart::myUart() {
     53a:	23 e3       	ldi	r18, 0x33	; 51
     53c:	30 e0       	ldi	r19, 0x00	; 0
     53e:	fc 01       	movw	r30, r24
     540:	31 83       	std	Z+1, r19	; 0x01
     542:	20 83       	st	Z, r18
  UBRR0H = (uint8_t)(UBRR_VAL >> 8);
     544:	10 92 c5 00 	sts	0x00C5, r1	; 0x8000c5 <__TEXT_REGION_LENGTH__+0x7e00c5>
  UBRR0L = (uint8_t)UBRR_VAL;
     548:	80 81       	ld	r24, Z
     54a:	80 93 c4 00 	sts	0x00C4, r24	; 0x8000c4 <__TEXT_REGION_LENGTH__+0x7e00c4>
  UCSR0C |= (1<<UCSZ01)|(1<<UCSZ00); // Asynchron 8N1
     54e:	e2 ec       	ldi	r30, 0xC2	; 194
     550:	f0 e0       	ldi	r31, 0x00	; 0
     552:	80 81       	ld	r24, Z
     554:	86 60       	ori	r24, 0x06	; 6
     556:	80 83       	st	Z, r24
     558:	08 95       	ret

0000055a <_ZN6myUartD1Ev>:
} //uart

// default destructor
myUart::~myUart() {
     55a:	08 95       	ret

0000055c <_ZN6myUart4readEPhh>:
 *  max. number of chars
 *
 * \return uint8_t
 *  number of read chars without \0
 */
uint8_t myUart::read(unsigned char *x, uint8_t size) {
     55c:	0f 93       	push	r16
     55e:	1f 93       	push	r17
     560:	cf 93       	push	r28
     562:	df 93       	push	r29
	uint8_t i = 0;
	if (size == 0) return 0;				// return 0 if no space
     564:	44 23       	and	r20, r20
     566:	49 f1       	breq	.+82     	; 0x5ba <_ZN6myUart4readEPhh+0x5e>
	unsigned char c = 0;
	while (i < (size - 1)) {				// check space is available (including additional null char at end)
     568:	c4 2f       	mov	r28, r20
     56a:	d0 e0       	ldi	r29, 0x00	; 0
     56c:	21 97       	sbiw	r28, 0x01	; 1
     56e:	1c 16       	cp	r1, r28
     570:	1d 06       	cpc	r1, r29
     572:	cc f4       	brge	.+50     	; 0x5a6 <_ZN6myUart4readEPhh+0x4a>
     574:	80 e0       	ldi	r24, 0x00	; 0
		while ( !(UCSR0A & (1<<RXC0)) );	// wait for another char - WARNING this will wait forever if nothing is received
     576:	e0 ec       	ldi	r30, 0xC0	; 192
     578:	f0 e0       	ldi	r31, 0x00	; 0
		c = UDR0;		
     57a:	06 ec       	ldi	r16, 0xC6	; 198
     57c:	10 e0       	ldi	r17, 0x00	; 0
uint8_t myUart::read(unsigned char *x, uint8_t size) {
	uint8_t i = 0;
	if (size == 0) return 0;				// return 0 if no space
	unsigned char c = 0;
	while (i < (size - 1)) {				// check space is available (including additional null char at end)
		while ( !(UCSR0A & (1<<RXC0)) );	// wait for another char - WARNING this will wait forever if nothing is received
     57e:	90 81       	ld	r25, Z
     580:	99 23       	and	r25, r25
     582:	ec f7       	brge	.-6      	; 0x57e <_ZN6myUart4readEPhh+0x22>
		c = UDR0;		
     584:	d8 01       	movw	r26, r16
     586:	9c 91       	ld	r25, X
		if (c == '\n' || c == '\r') break;  // break on NULL OR ENTER character
     588:	9a 30       	cpi	r25, 0x0A	; 10
     58a:	71 f0       	breq	.+28     	; 0x5a8 <_ZN6myUart4readEPhh+0x4c>
     58c:	9d 30       	cpi	r25, 0x0D	; 13
     58e:	61 f0       	breq	.+24     	; 0x5a8 <_ZN6myUart4readEPhh+0x4c>
		x[i] = c;							// write into the supplied buffer
     590:	db 01       	movw	r26, r22
     592:	a8 0f       	add	r26, r24
     594:	b1 1d       	adc	r27, r1
     596:	9c 93       	st	X, r25
		i++;
     598:	8f 5f       	subi	r24, 0xFF	; 255
 */
uint8_t myUart::read(unsigned char *x, uint8_t size) {
	uint8_t i = 0;
	if (size == 0) return 0;				// return 0 if no space
	unsigned char c = 0;
	while (i < (size - 1)) {				// check space is available (including additional null char at end)
     59a:	28 2f       	mov	r18, r24
     59c:	30 e0       	ldi	r19, 0x00	; 0
     59e:	2c 17       	cp	r18, r28
     5a0:	3d 07       	cpc	r19, r29
     5a2:	6c f3       	brlt	.-38     	; 0x57e <_ZN6myUart4readEPhh+0x22>
     5a4:	01 c0       	rjmp	.+2      	; 0x5a8 <_ZN6myUart4readEPhh+0x4c>
     5a6:	80 e0       	ldi	r24, 0x00	; 0
		c = UDR0;		
		if (c == '\n' || c == '\r') break;  // break on NULL OR ENTER character
		x[i] = c;							// write into the supplied buffer
		i++;
	}
	if (i >= size) i = size - 1;// ensure the last character in the array is '\0'
     5a8:	84 17       	cp	r24, r20
     5aa:	10 f0       	brcs	.+4      	; 0x5b0 <_ZN6myUart4readEPhh+0x54>
     5ac:	8f ef       	ldi	r24, 0xFF	; 255
     5ae:	84 0f       	add	r24, r20
	x[i] = '\0';	
     5b0:	fb 01       	movw	r30, r22
     5b2:	e8 0f       	add	r30, r24
     5b4:	f1 1d       	adc	r31, r1
     5b6:	10 82       	st	Z, r1
	return i;				// return number of characters written (incl. '\0')
     5b8:	01 c0       	rjmp	.+2      	; 0x5bc <_ZN6myUart4readEPhh+0x60>
 * \return uint8_t
 *  number of read chars without \0
 */
uint8_t myUart::read(unsigned char *x, uint8_t size) {
	uint8_t i = 0;
	if (size == 0) return 0;				// return 0 if no space
     5ba:	80 e0       	ldi	r24, 0x00	; 0
		i++;
	}
	if (i >= size) i = size - 1;// ensure the last character in the array is '\0'
	x[i] = '\0';	
	return i;				// return number of characters written (incl. '\0')
}
     5bc:	df 91       	pop	r29
     5be:	cf 91       	pop	r28
     5c0:	1f 91       	pop	r17
     5c2:	0f 91       	pop	r16
     5c4:	08 95       	ret

000005c6 <_ZN6myUart4readEv>:
 *  reads a single char from UART
 * 
 * \return unsigned char
 */
unsigned char myUart::read() {
	while( !(UCSR0A & (1<<RXC0)));
     5c6:	e0 ec       	ldi	r30, 0xC0	; 192
     5c8:	f0 e0       	ldi	r31, 0x00	; 0
     5ca:	80 81       	ld	r24, Z
     5cc:	88 23       	and	r24, r24
     5ce:	ec f7       	brge	.-6      	; 0x5ca <_ZN6myUart4readEv+0x4>
	return UDR0;
     5d0:	80 91 c6 00 	lds	r24, 0x00C6	; 0x8000c6 <__TEXT_REGION_LENGTH__+0x7e00c6>
}
     5d4:	08 95       	ret

000005d6 <_ZN6myUart6enableEv>:
 *  enables UART0 receive and transmit modes
 * 
 * \return void
 */
void myUart::enable() {
	  UCSR0B |= (1<<RXEN0) | (1<<TXEN0);  // UART RX, TX 
     5d6:	e1 ec       	ldi	r30, 0xC1	; 193
     5d8:	f0 e0       	ldi	r31, 0x00	; 0
     5da:	80 81       	ld	r24, Z
     5dc:	88 61       	ori	r24, 0x18	; 24
     5de:	80 83       	st	Z, r24
     5e0:	08 95       	ret

000005e2 <_ZN6myUart7disableEv>:
 *  disables recieve and transmitt for UART0
 * 
 * \return void
 */
void myUart::disable() {
	UCSR0B &= ~((1<<RXEN0) | (1<<TXEN0));  // UART RX, TX 
     5e2:	e1 ec       	ldi	r30, 0xC1	; 193
     5e4:	f0 e0       	ldi	r31, 0x00	; 0
     5e6:	80 81       	ld	r24, Z
     5e8:	87 7e       	andi	r24, 0xE7	; 231
     5ea:	80 83       	st	Z, r24
     5ec:	08 95       	ret

000005ee <_ZN6myUart4LfCrEv>:
 *  to display proper Linefeed
 * 
 * \return void
 */
void myUart::LfCr() {
	while(!(UCSR0A & (1 << UDRE0))) {	}
     5ee:	e0 ec       	ldi	r30, 0xC0	; 192
     5f0:	f0 e0       	ldi	r31, 0x00	; 0
     5f2:	80 81       	ld	r24, Z
     5f4:	85 ff       	sbrs	r24, 5
     5f6:	fd cf       	rjmp	.-6      	; 0x5f2 <_ZN6myUart4LfCrEv+0x4>
	UDR0 = ((unsigned char)UART_LF);
     5f8:	8a e0       	ldi	r24, 0x0A	; 10
     5fa:	80 93 c6 00 	sts	0x00C6, r24	; 0x8000c6 <__TEXT_REGION_LENGTH__+0x7e00c6>
	while(!(UCSR0A & (1 << UDRE0))) {	}
     5fe:	e0 ec       	ldi	r30, 0xC0	; 192
     600:	f0 e0       	ldi	r31, 0x00	; 0
     602:	80 81       	ld	r24, Z
     604:	85 ff       	sbrs	r24, 5
     606:	fd cf       	rjmp	.-6      	; 0x602 <_ZN6myUart4LfCrEv+0x14>
	UDR0 = ((unsigned char)UART_CR);
     608:	8d e0       	ldi	r24, 0x0D	; 13
     60a:	80 93 c6 00 	sts	0x00C6, r24	; 0x8000c6 <__TEXT_REGION_LENGTH__+0x7e00c6>
     60e:	08 95       	ret

00000610 <_ZN6myUart5writeEhb>:
 * \param linefeed
 *  if true ... send CR and LF
 *  default value = false
 * \return void
 */
void myUart::write(unsigned char c, bool linefeed /*= false*/) {
     610:	9c 01       	movw	r18, r24
	while(!(UCSR0A & (1 << UDRE0))) {	}
     612:	e0 ec       	ldi	r30, 0xC0	; 192
     614:	f0 e0       	ldi	r31, 0x00	; 0
     616:	90 81       	ld	r25, Z
     618:	95 ff       	sbrs	r25, 5
     61a:	fd cf       	rjmp	.-6      	; 0x616 <_ZN6myUart5writeEhb+0x6>
	UDR0 = c;
     61c:	60 93 c6 00 	sts	0x00C6, r22	; 0x8000c6 <__TEXT_REGION_LENGTH__+0x7e00c6>
	if (linefeed) {
     620:	44 23       	and	r20, r20
     622:	19 f0       	breq	.+6      	; 0x62a <_ZN6myUart5writeEhb+0x1a>
     624:	c9 01       	movw	r24, r18
		LfCr();
     626:	0e 94 f7 02 	call	0x5ee	; 0x5ee <_ZN6myUart4LfCrEv>
     62a:	08 95       	ret

0000062c <_ZN6myUart3clsEv>:
 *  send clear screen command for VT100 Terminal
 *  with Escape sequences
 * 
 * \return void
 */
void myUart::cls() {
     62c:	cf 93       	push	r28
     62e:	df 93       	push	r29
     630:	ec 01       	movw	r28, r24
	write((unsigned char)(27));
     632:	40 e0       	ldi	r20, 0x00	; 0
     634:	6b e1       	ldi	r22, 0x1B	; 27
     636:	0e 94 08 03 	call	0x610	; 0x610 <_ZN6myUart5writeEhb>
	write((unsigned char)('['));
     63a:	40 e0       	ldi	r20, 0x00	; 0
     63c:	6b e5       	ldi	r22, 0x5B	; 91
     63e:	ce 01       	movw	r24, r28
     640:	0e 94 08 03 	call	0x610	; 0x610 <_ZN6myUart5writeEhb>
	write((unsigned char)('2'));
     644:	40 e0       	ldi	r20, 0x00	; 0
     646:	62 e3       	ldi	r22, 0x32	; 50
     648:	ce 01       	movw	r24, r28
     64a:	0e 94 08 03 	call	0x610	; 0x610 <_ZN6myUart5writeEhb>
	write((unsigned char)('J'));
     64e:	40 e0       	ldi	r20, 0x00	; 0
     650:	6a e4       	ldi	r22, 0x4A	; 74
     652:	ce 01       	movw	r24, r28
     654:	0e 94 08 03 	call	0x610	; 0x610 <_ZN6myUart5writeEhb>
	write((unsigned char)(27));
     658:	40 e0       	ldi	r20, 0x00	; 0
     65a:	6b e1       	ldi	r22, 0x1B	; 27
     65c:	ce 01       	movw	r24, r28
     65e:	0e 94 08 03 	call	0x610	; 0x610 <_ZN6myUart5writeEhb>
	write((unsigned char)('['));
     662:	40 e0       	ldi	r20, 0x00	; 0
     664:	6b e5       	ldi	r22, 0x5B	; 91
     666:	ce 01       	movw	r24, r28
     668:	0e 94 08 03 	call	0x610	; 0x610 <_ZN6myUart5writeEhb>
	write((unsigned char)('H'));
     66c:	40 e0       	ldi	r20, 0x00	; 0
     66e:	68 e4       	ldi	r22, 0x48	; 72
     670:	ce 01       	movw	r24, r28
     672:	0e 94 08 03 	call	0x610	; 0x610 <_ZN6myUart5writeEhb>
}
     676:	df 91       	pop	r29
     678:	cf 91       	pop	r28
     67a:	08 95       	ret

0000067c <_ZN6myUart5writeEPcb>:
 * \param linefeed
 *  if true .. send CR and LF
 *  default value = false
 * \return void
 */
void myUart::write(char *s, bool linefeed /*= false*/) {
     67c:	ff 92       	push	r15
     67e:	0f 93       	push	r16
     680:	1f 93       	push	r17
     682:	cf 93       	push	r28
     684:	df 93       	push	r29
     686:	8c 01       	movw	r16, r24
     688:	eb 01       	movw	r28, r22
     68a:	f4 2e       	mov	r15, r20
	while (*s) {
     68c:	68 81       	ld	r22, Y
     68e:	66 23       	and	r22, r22
     690:	41 f0       	breq	.+16     	; 0x6a2 <_ZN6myUart5writeEPcb+0x26>
     692:	21 96       	adiw	r28, 0x01	; 1
		write((unsigned char)*s, false);
     694:	40 e0       	ldi	r20, 0x00	; 0
     696:	c8 01       	movw	r24, r16
     698:	0e 94 08 03 	call	0x610	; 0x610 <_ZN6myUart5writeEhb>
 *  if true .. send CR and LF
 *  default value = false
 * \return void
 */
void myUart::write(char *s, bool linefeed /*= false*/) {
	while (*s) {
     69c:	69 91       	ld	r22, Y+
     69e:	61 11       	cpse	r22, r1
     6a0:	f9 cf       	rjmp	.-14     	; 0x694 <_ZN6myUart5writeEPcb+0x18>
		write((unsigned char)*s, false);
		s++;
	}
	if (linefeed) LfCr();
     6a2:	ff 20       	and	r15, r15
     6a4:	19 f0       	breq	.+6      	; 0x6ac <_ZN6myUart5writeEPcb+0x30>
     6a6:	c8 01       	movw	r24, r16
     6a8:	0e 94 f7 02 	call	0x5ee	; 0x5ee <_ZN6myUart4LfCrEv>
}
     6ac:	df 91       	pop	r29
     6ae:	cf 91       	pop	r28
     6b0:	1f 91       	pop	r17
     6b2:	0f 91       	pop	r16
     6b4:	ff 90       	pop	r15
     6b6:	08 95       	ret

000006b8 <_ZN6myUart5writeEib>:
 * \param linefeed
 *  is handed over to write for char arrays; 
 *  default value = false
 * \return void
 */
void myUart::write(int16_t i, bool linefeed /*= false*/) {
     6b8:	ff 92       	push	r15
     6ba:	0f 93       	push	r16
     6bc:	1f 93       	push	r17
     6be:	cf 93       	push	r28
     6c0:	df 93       	push	r29
     6c2:	cd b7       	in	r28, 0x3d	; 61
     6c4:	de b7       	in	r29, 0x3e	; 62
     6c6:	27 97       	sbiw	r28, 0x07	; 7
     6c8:	0f b6       	in	r0, 0x3f	; 63
     6ca:	f8 94       	cli
     6cc:	de bf       	out	0x3e, r29	; 62
     6ce:	0f be       	out	0x3f, r0	; 63
     6d0:	cd bf       	out	0x3d, r28	; 61
     6d2:	8c 01       	movw	r16, r24
     6d4:	cb 01       	movw	r24, r22
     6d6:	f4 2e       	mov	r15, r20
    } else if (__radix < 2 || __radix > 36) {
	*__s = 0;
	return __s;
    } else {
	extern char *__itoa_ncheck (int, char *, unsigned char);
	return __itoa_ncheck (__val, __s, __radix);
     6d8:	4a e0       	ldi	r20, 0x0A	; 10
     6da:	be 01       	movw	r22, r28
     6dc:	6f 5f       	subi	r22, 0xFF	; 255
     6de:	7f 4f       	sbci	r23, 0xFF	; 255
     6e0:	0e 94 b5 0a 	call	0x156a	; 0x156a <__itoa_ncheck>
	char s[7];
	itoa(i, s, 10);
	write(s, linefeed);
     6e4:	4f 2d       	mov	r20, r15
     6e6:	be 01       	movw	r22, r28
     6e8:	6f 5f       	subi	r22, 0xFF	; 255
     6ea:	7f 4f       	sbci	r23, 0xFF	; 255
     6ec:	c8 01       	movw	r24, r16
     6ee:	0e 94 3e 03 	call	0x67c	; 0x67c <_ZN6myUart5writeEPcb>
}
     6f2:	27 96       	adiw	r28, 0x07	; 7
     6f4:	0f b6       	in	r0, 0x3f	; 63
     6f6:	f8 94       	cli
     6f8:	de bf       	out	0x3e, r29	; 62
     6fa:	0f be       	out	0x3f, r0	; 63
     6fc:	cd bf       	out	0x3d, r28	; 61
     6fe:	df 91       	pop	r29
     700:	cf 91       	pop	r28
     702:	1f 91       	pop	r17
     704:	0f 91       	pop	r16
     706:	ff 90       	pop	r15
     708:	08 95       	ret

0000070a <_ZN6myUart5writeEjb>:
 * \param linefeed
 *  is handed over to write for char arrays
 *  default value is false
 * \return void
 */
void myUart::write(uint16_t i, bool linefeed /*= false*/) {
     70a:	ff 92       	push	r15
     70c:	0f 93       	push	r16
     70e:	1f 93       	push	r17
     710:	cf 93       	push	r28
     712:	df 93       	push	r29
     714:	00 d0       	rcall	.+0      	; 0x716 <_ZN6myUart5writeEjb+0xc>
     716:	00 d0       	rcall	.+0      	; 0x718 <_ZN6myUart5writeEjb+0xe>
     718:	00 d0       	rcall	.+0      	; 0x71a <_ZN6myUart5writeEjb+0x10>
     71a:	cd b7       	in	r28, 0x3d	; 61
     71c:	de b7       	in	r29, 0x3e	; 62
     71e:	8c 01       	movw	r16, r24
     720:	cb 01       	movw	r24, r22
     722:	f4 2e       	mov	r15, r20
     724:	4a e0       	ldi	r20, 0x0A	; 10
     726:	be 01       	movw	r22, r28
     728:	6f 5f       	subi	r22, 0xFF	; 255
     72a:	7f 4f       	sbci	r23, 0xFF	; 255
     72c:	0e 94 b5 0a 	call	0x156a	; 0x156a <__itoa_ncheck>
	char s[6];
	itoa(i, s, 10);
	write(s, linefeed);	
     730:	4f 2d       	mov	r20, r15
     732:	be 01       	movw	r22, r28
     734:	6f 5f       	subi	r22, 0xFF	; 255
     736:	7f 4f       	sbci	r23, 0xFF	; 255
     738:	c8 01       	movw	r24, r16
     73a:	0e 94 3e 03 	call	0x67c	; 0x67c <_ZN6myUart5writeEPcb>
}
     73e:	26 96       	adiw	r28, 0x06	; 6
     740:	0f b6       	in	r0, 0x3f	; 63
     742:	f8 94       	cli
     744:	de bf       	out	0x3e, r29	; 62
     746:	0f be       	out	0x3f, r0	; 63
     748:	cd bf       	out	0x3d, r28	; 61
     74a:	df 91       	pop	r29
     74c:	cf 91       	pop	r28
     74e:	1f 91       	pop	r17
     750:	0f 91       	pop	r16
     752:	ff 90       	pop	r15
     754:	08 95       	ret

00000756 <_ZN9Servo2To611getPositionEh>:
 * 
 * \return uint8_t
 *  index 0..left, 1..middle, 2..right
 */
uint8_t Servo2To6::getPosition(uint8_t position) {
	if (position <= _MinDecision) {
     756:	90 91 a6 07 	lds	r25, 0x07A6	; 0x8007a6 <_ZN9Servo2To612_MinDecisionE>
     75a:	98 17       	cp	r25, r24
     75c:	30 f4       	brcc	.+12     	; 0x76a <_ZN9Servo2To611getPositionEh+0x14>
		return 0;
	} else if (position >= _MaxDecision) {
     75e:	90 91 a5 07 	lds	r25, 0x07A5	; 0x8007a5 <_ZN9Servo2To612_MaxDecisionE>
     762:	89 17       	cp	r24, r25
     764:	20 f4       	brcc	.+8      	; 0x76e <_ZN9Servo2To611getPositionEh+0x18>
		return 2;
	} else {
		return 1;
     766:	81 e0       	ldi	r24, 0x01	; 1
     768:	08 95       	ret
 * \return uint8_t
 *  index 0..left, 1..middle, 2..right
 */
uint8_t Servo2To6::getPosition(uint8_t position) {
	if (position <= _MinDecision) {
		return 0;
     76a:	80 e0       	ldi	r24, 0x00	; 0
     76c:	08 95       	ret
	} else if (position >= _MaxDecision) {
		return 2;
     76e:	82 e0       	ldi	r24, 0x02	; 2
	} else {
		return 1;
	}
}
     770:	08 95       	ret

00000772 <_ZN9Servo2To615setNewPositionsEv>:
 * 
 * \return void
 */
void Servo2To6::setNewPositions() {

	ServoOpenPort &= ~(SV1To6OpenPins);
     772:	8b b1       	in	r24, 0x0b	; 11
     774:	87 7c       	andi	r24, 0xC7	; 199
     776:	8b b9       	out	0x0b, r24	; 11

	switch (NewSwitchPosition) {
     778:	80 91 ae 07 	lds	r24, 0x07AE	; 0x8007ae <_ZN9Servo2To617NewSwitchPositionE>
     77c:	81 30       	cpi	r24, 0x01	; 1
     77e:	89 f0       	breq	.+34     	; 0x7a2 <_ZN9Servo2To615setNewPositionsEv+0x30>
     780:	18 f0       	brcs	.+6      	; 0x788 <_ZN9Servo2To615setNewPositionsEv+0x16>
     782:	82 30       	cpi	r24, 0x02	; 2
     784:	d9 f0       	breq	.+54     	; 0x7bc <_ZN9Servo2To615setNewPositionsEv+0x4a>
     786:	26 c0       	rjmp	.+76     	; 0x7d4 <_ZN9Servo2To615setNewPositionsEv+0x62>
		case 0:
			PwmOnPort &= ~(1 << PwmOn12Pin);
     788:	40 98       	cbi	0x08, 0	; 8
			ServoOpenPort |= (1 << SV12OpenPin);
     78a:	5b 9a       	sbi	0x0b, 3	; 11

			switch(SwitchPosition) {
     78c:	80 91 b1 07 	lds	r24, 0x07B1	; 0x8007b1 <_ZN9Servo2To614SwitchPositionE>
     790:	81 30       	cpi	r24, 0x01	; 1
     792:	19 f0       	breq	.+6      	; 0x79a <_ZN9Servo2To615setNewPositionsEv+0x28>
     794:	82 30       	cpi	r24, 0x02	; 2
     796:	19 f0       	breq	.+6      	; 0x79e <_ZN9Servo2To615setNewPositionsEv+0x2c>
     798:	1d c0       	rjmp	.+58     	; 0x7d4 <_ZN9Servo2To615setNewPositionsEv+0x62>
				case 1:
					PwmOnPort |= (1 << PwmOn34Pin);	
     79a:	41 9a       	sbi	0x08, 1	; 8
					break;
     79c:	1b c0       	rjmp	.+54     	; 0x7d4 <_ZN9Servo2To615setNewPositionsEv+0x62>
				case 2:
					PwmOnPort |= (1 << PwmOn56Pin);
     79e:	42 9a       	sbi	0x08, 2	; 8
					break;
     7a0:	19 c0       	rjmp	.+50     	; 0x7d4 <_ZN9Servo2To615setNewPositionsEv+0x62>
			}
			break;
		case 1:
			PwmOnPort &= ~(1 << PwmOn34Pin);
     7a2:	41 98       	cbi	0x08, 1	; 8
			ServoOpenPort |= (1 << SV34OpenPin);
     7a4:	5c 9a       	sbi	0x0b, 4	; 11
			switch(SwitchPosition) {
     7a6:	80 91 b1 07 	lds	r24, 0x07B1	; 0x8007b1 <_ZN9Servo2To614SwitchPositionE>
     7aa:	88 23       	and	r24, r24
     7ac:	19 f0       	breq	.+6      	; 0x7b4 <_ZN9Servo2To615setNewPositionsEv+0x42>
     7ae:	82 30       	cpi	r24, 0x02	; 2
     7b0:	19 f0       	breq	.+6      	; 0x7b8 <_ZN9Servo2To615setNewPositionsEv+0x46>
     7b2:	10 c0       	rjmp	.+32     	; 0x7d4 <_ZN9Servo2To615setNewPositionsEv+0x62>
				case 0:
					PwmOnPort |= (1 << PwmOn12Pin);
     7b4:	40 9a       	sbi	0x08, 0	; 8
					break;
     7b6:	0e c0       	rjmp	.+28     	; 0x7d4 <_ZN9Servo2To615setNewPositionsEv+0x62>
				case 2:
					PwmOnPort |= (1 << PwmOn56Pin);
     7b8:	42 9a       	sbi	0x08, 2	; 8
					break;
     7ba:	0c c0       	rjmp	.+24     	; 0x7d4 <_ZN9Servo2To615setNewPositionsEv+0x62>
			}
			break;
		case 2:
			PwmOnPort &= ~(1 << PwmOn56Pin);
     7bc:	42 98       	cbi	0x08, 2	; 8
			ServoOpenPort |= (1 << SV56OpenPin);
     7be:	5d 9a       	sbi	0x0b, 5	; 11
			switch(SwitchPosition) {
     7c0:	80 91 b1 07 	lds	r24, 0x07B1	; 0x8007b1 <_ZN9Servo2To614SwitchPositionE>
     7c4:	88 23       	and	r24, r24
     7c6:	19 f0       	breq	.+6      	; 0x7ce <_ZN9Servo2To615setNewPositionsEv+0x5c>
     7c8:	81 30       	cpi	r24, 0x01	; 1
     7ca:	19 f0       	breq	.+6      	; 0x7d2 <_ZN9Servo2To615setNewPositionsEv+0x60>
     7cc:	03 c0       	rjmp	.+6      	; 0x7d4 <_ZN9Servo2To615setNewPositionsEv+0x62>
				case 0:
					PwmOnPort |= (1 << PwmOn12Pin);
     7ce:	40 9a       	sbi	0x08, 0	; 8
					break;
     7d0:	01 c0       	rjmp	.+2      	; 0x7d4 <_ZN9Servo2To615setNewPositionsEv+0x62>
				case 1:
					PwmOnPort |= (1 << PwmOn34Pin);
     7d2:	41 9a       	sbi	0x08, 1	; 8
					break;
			}
			break;
	} // switch (NewSwitchPosition)
	SwitchPosition = NewSwitchPosition;
     7d4:	80 91 ae 07 	lds	r24, 0x07AE	; 0x8007ae <_ZN9Servo2To617NewSwitchPositionE>
     7d8:	80 93 b1 07 	sts	0x07B1, r24	; 0x8007b1 <_ZN9Servo2To614SwitchPositionE>
     7dc:	08 95       	ret

000007de <_ZN9Servo2To614SigInServo1ISREb>:
 *	true ... enable ISR, false ... disable
 * \return void
 */
void Servo2To6::SigInServo1ISR(bool enable)
{
	if(enable) {
     7de:	88 23       	and	r24, r24
     7e0:	31 f0       	breq	.+12     	; 0x7ee <_ZN9Servo2To614SigInServo1ISREb+0x10>
		PCMSK1 |= (1 << PCINT11);
     7e2:	ec e6       	ldi	r30, 0x6C	; 108
     7e4:	f0 e0       	ldi	r31, 0x00	; 0
     7e6:	80 81       	ld	r24, Z
     7e8:	88 60       	ori	r24, 0x08	; 8
     7ea:	80 83       	st	Z, r24
     7ec:	08 95       	ret
	} else {
		PCMSK1 &= ~(1 << PCINT11);
     7ee:	ec e6       	ldi	r30, 0x6C	; 108
     7f0:	f0 e0       	ldi	r31, 0x00	; 0
     7f2:	80 81       	ld	r24, Z
     7f4:	87 7f       	andi	r24, 0xF7	; 247
     7f6:	80 83       	st	Z, r24
     7f8:	08 95       	ret

000007fa <_ZN9Servo2To611SwitchTimerEb>:
 *  true ... start timer, false ... stop timer
 * \return void
 */
void Servo2To6::SwitchTimer(bool start)
{
	if(start) {
     7fa:	88 23       	and	r24, r24
     7fc:	21 f0       	breq	.+8      	; 0x806 <_ZN9Servo2To611SwitchTimerEb+0xc>
		TCCR0B |= (1 << CS02);
     7fe:	85 b5       	in	r24, 0x25	; 37
     800:	84 60       	ori	r24, 0x04	; 4
     802:	85 bd       	out	0x25, r24	; 37
     804:	08 95       	ret
	} else {
		TCCR0B &= ~((1 << CS02) | (1 << CS01) | (1 << CS00));
     806:	85 b5       	in	r24, 0x25	; 37
     808:	88 7f       	andi	r24, 0xF8	; 248
     80a:	85 bd       	out	0x25, r24	; 37
     80c:	08 95       	ret

0000080e <_ZN9Servo2To614SwitchSenseISREb>:
 *  true ... INT0 is active, false .. INT0 is inactive
 * \return void
 */
void Servo2To6::SwitchSenseISR(bool enable)
{
	if (enable) {
     80e:	88 23       	and	r24, r24
     810:	11 f0       	breq	.+4      	; 0x816 <_ZN9Servo2To614SwitchSenseISREb+0x8>
		EIMSK |= (1 << INT0);
     812:	e8 9a       	sbi	0x1d, 0	; 29
     814:	08 95       	ret
	} else {
		EIMSK &= ~(1 << INT0);
     816:	e8 98       	cbi	0x1d, 0	; 29
     818:	08 95       	ret

0000081a <_ZN9Servo2To68PWMTimerEb>:
 * true ... start PWMTimer1; false ... stop PWMTimer1
 * \return void
 */
void Servo2To6::PWMTimer(bool start)
{
	PwmOnPort &= ~(PwmON1To6Pins);
     81a:	98 b1       	in	r25, 0x08	; 8
     81c:	98 7f       	andi	r25, 0xF8	; 248
     81e:	98 b9       	out	0x08, r25	; 8
	if(start) {
     820:	88 23       	and	r24, r24
     822:	31 f0       	breq	.+12     	; 0x830 <_ZN9Servo2To68PWMTimerEb+0x16>
		TCCR1B |= (1 << CS11);
     824:	e1 e8       	ldi	r30, 0x81	; 129
     826:	f0 e0       	ldi	r31, 0x00	; 0
     828:	80 81       	ld	r24, Z
     82a:	82 60       	ori	r24, 0x02	; 2
     82c:	80 83       	st	Z, r24
     82e:	08 95       	ret
	} else {
		TCCR1B &= ~((1 << CS12) | (1 << CS11) | ( 1 << CS10));	
     830:	e1 e8       	ldi	r30, 0x81	; 129
     832:	f0 e0       	ldi	r31, 0x00	; 0
     834:	80 81       	ld	r24, Z
     836:	88 7f       	andi	r24, 0xF8	; 248
     838:	80 83       	st	Z, r24
     83a:	08 95       	ret

0000083c <_ZN9Servo2To614ThreeMsCounterEb>:
 *	true .. start Timer2; false .. stop timer2
 * \return void
 */
void Servo2To6::ThreeMsCounter(bool start)
{
	if(start) {
     83c:	88 23       	and	r24, r24
     83e:	31 f0       	breq	.+12     	; 0x84c <_ZN9Servo2To614ThreeMsCounterEb+0x10>
		TCCR2B |= (1 << CS22);
     840:	e1 eb       	ldi	r30, 0xB1	; 177
     842:	f0 e0       	ldi	r31, 0x00	; 0
     844:	80 81       	ld	r24, Z
     846:	84 60       	ori	r24, 0x04	; 4
     848:	80 83       	st	Z, r24
     84a:	08 95       	ret
	} else {
		TCCR2B &=  ~((1 << CS22) | (1 << CS21) | (1 << CS20));
     84c:	e1 eb       	ldi	r30, 0xB1	; 177
     84e:	f0 e0       	ldi	r31, 0x00	; 0
     850:	80 81       	ld	r24, Z
     852:	88 7f       	andi	r24, 0xF8	; 248
     854:	80 83       	st	Z, r24
     856:	08 95       	ret

00000858 <_ZN9Servo2To613initPWMTimer1Ev>:
 *		Timer 1 in Fast PWM Mode creates Servo PWM and OC1A PWM output
 * 
 * \return void
 */
void Servo2To6::initPWMTimer1() {	
	TCCR1A |= (1 << WGM11);
     858:	e0 e8       	ldi	r30, 0x80	; 128
     85a:	f0 e0       	ldi	r31, 0x00	; 0
     85c:	80 81       	ld	r24, Z
     85e:	82 60       	ori	r24, 0x02	; 2
     860:	80 83       	st	Z, r24
	TCCR1B |= (1 << WGM12) | (1 << WGM13);		// Fast PWM Mode
     862:	a1 e8       	ldi	r26, 0x81	; 129
     864:	b0 e0       	ldi	r27, 0x00	; 0
     866:	8c 91       	ld	r24, X
     868:	88 61       	ori	r24, 0x18	; 24
     86a:	8c 93       	st	X, r24
	TCCR1A |= (1 << COM1A1);					// config output pin pb1 as PWM Timer output in not inverting mode
     86c:	80 81       	ld	r24, Z
     86e:	80 68       	ori	r24, 0x80	; 128
     870:	80 83       	st	Z, r24
	OCR1A = _MidAngle;
     872:	80 91 a9 07 	lds	r24, 0x07A9	; 0x8007a9 <_ZN9Servo2To69_MidAngleE>
     876:	90 91 aa 07 	lds	r25, 0x07AA	; 0x8007aa <_ZN9Servo2To69_MidAngleE+0x1>
     87a:	90 93 89 00 	sts	0x0089, r25	; 0x800089 <__TEXT_REGION_LENGTH__+0x7e0089>
     87e:	80 93 88 00 	sts	0x0088, r24	; 0x800088 <__TEXT_REGION_LENGTH__+0x7e0088>
	switch (_servoType)
     882:	80 91 00 01 	lds	r24, 0x0100	; 0x800100 <_ZN9Servo2To610_servoTypeE>
     886:	90 91 01 01 	lds	r25, 0x0101	; 0x800101 <_ZN9Servo2To610_servoTypeE+0x1>
     88a:	84 36       	cpi	r24, 0x64	; 100
     88c:	91 05       	cpc	r25, r1
     88e:	91 f0       	breq	.+36     	; 0x8b4 <_ZN9Servo2To613initPWMTimer1Ev+0x5c>
     890:	1c f4       	brge	.+6      	; 0x898 <_ZN9Servo2To613initPWMTimer1Ev+0x40>
     892:	c2 97       	sbiw	r24, 0x32	; 50
     894:	41 f0       	breq	.+16     	; 0x8a6 <_ZN9Servo2To613initPWMTimer1Ev+0x4e>
     896:	08 95       	ret
     898:	88 3c       	cpi	r24, 0xC8	; 200
     89a:	91 05       	cpc	r25, r1
     89c:	91 f0       	breq	.+36     	; 0x8c2 <_ZN9Servo2To613initPWMTimer1Ev+0x6a>
     89e:	8c 32       	cpi	r24, 0x2C	; 44
     8a0:	91 40       	sbci	r25, 0x01	; 1
     8a2:	b1 f0       	breq	.+44     	; 0x8d0 <_ZN9Servo2To613initPWMTimer1Ev+0x78>
     8a4:	08 95       	ret
	{
		case ServoType::analog:
			ICR1 = 39999;
     8a6:	8f e3       	ldi	r24, 0x3F	; 63
     8a8:	9c e9       	ldi	r25, 0x9C	; 156
     8aa:	90 93 87 00 	sts	0x0087, r25	; 0x800087 <__TEXT_REGION_LENGTH__+0x7e0087>
     8ae:	80 93 86 00 	sts	0x0086, r24	; 0x800086 <__TEXT_REGION_LENGTH__+0x7e0086>
			break;
     8b2:	08 95       	ret
		case ServoType::digital100:
			ICR1 = 19999;
     8b4:	8f e1       	ldi	r24, 0x1F	; 31
     8b6:	9e e4       	ldi	r25, 0x4E	; 78
     8b8:	90 93 87 00 	sts	0x0087, r25	; 0x800087 <__TEXT_REGION_LENGTH__+0x7e0087>
     8bc:	80 93 86 00 	sts	0x0086, r24	; 0x800086 <__TEXT_REGION_LENGTH__+0x7e0086>
			break;
     8c0:	08 95       	ret
		case ServoType::digital200:
			ICR1 = 9999;
     8c2:	8f e0       	ldi	r24, 0x0F	; 15
     8c4:	97 e2       	ldi	r25, 0x27	; 39
     8c6:	90 93 87 00 	sts	0x0087, r25	; 0x800087 <__TEXT_REGION_LENGTH__+0x7e0087>
     8ca:	80 93 86 00 	sts	0x0086, r24	; 0x800086 <__TEXT_REGION_LENGTH__+0x7e0086>
			break;
     8ce:	08 95       	ret
		case ServoType::digital300:
			ICR1 = 6666;
     8d0:	8a e0       	ldi	r24, 0x0A	; 10
     8d2:	9a e1       	ldi	r25, 0x1A	; 26
     8d4:	90 93 87 00 	sts	0x0087, r25	; 0x800087 <__TEXT_REGION_LENGTH__+0x7e0087>
     8d8:	80 93 86 00 	sts	0x0086, r24	; 0x800086 <__TEXT_REGION_LENGTH__+0x7e0086>
     8dc:	08 95       	ret

000008de <_ZN9Servo2To64initE9ServoTypeahj>:
  *		max range of servo angle (e.g. 120 => +-60 from 0(90) => not zeroing, so it can be asymmetrical from zeroing
  * \return 
  *		no return value
  */
 void Servo2To6::init(ServoType servotype, int8_t zeroing, uint8_t anglerange, uint16_t pwmdelay) {
	_servoType = servotype;
     8de:	90 93 01 01 	sts	0x0101, r25	; 0x800101 <_ZN9Servo2To610_servoTypeE+0x1>
     8e2:	80 93 00 01 	sts	0x0100, r24	; 0x800100 <_ZN9Servo2To610_servoTypeE>
	Status = ServoStatus::inActive;
     8e6:	10 92 b0 07 	sts	0x07B0, r1	; 0x8007b0 <_ZN9Servo2To66StatusE+0x1>
     8ea:	10 92 af 07 	sts	0x07AF, r1	; 0x8007af <_ZN9Servo2To66StatusE>
     8ee:	6b 35       	cpi	r22, 0x5B	; 91
     8f0:	0c f0       	brlt	.+2      	; 0x8f4 <_ZN9Servo2To64initE9ServoTypeahj+0x16>
     8f2:	6a e5       	ldi	r22, 0x5A	; 90
	if (zeroing < -90) 
		zeroing = -90;
	else if (zeroing > 90)
		zeroing = 90;
	_MidAngle = 3000 + (20 * zeroing);
     8f4:	66 3a       	cpi	r22, 0xA6	; 166
     8f6:	0c f4       	brge	.+2      	; 0x8fa <_ZN9Servo2To64initE9ServoTypeahj+0x1c>
     8f8:	66 ea       	ldi	r22, 0xA6	; 166
     8fa:	34 e1       	ldi	r19, 0x14	; 20
     8fc:	63 03       	mulsu	r22, r19
     8fe:	b0 01       	movw	r22, r0
     900:	11 24       	eor	r1, r1
     902:	68 54       	subi	r22, 0x48	; 72
     904:	74 4f       	sbci	r23, 0xF4	; 244
     906:	70 93 aa 07 	sts	0x07AA, r23	; 0x8007aa <_ZN9Servo2To69_MidAngleE+0x1>
     90a:	60 93 a9 07 	sts	0x07A9, r22	; 0x8007a9 <_ZN9Servo2To69_MidAngleE>
	_MinAngle = _MidAngle - (20 * (anglerange/2));
     90e:	46 95       	lsr	r20
     910:	cb 01       	movw	r24, r22
     912:	54 e1       	ldi	r21, 0x14	; 20
     914:	45 9f       	mul	r20, r21
     916:	80 19       	sub	r24, r0
     918:	91 09       	sbc	r25, r1
     91a:	11 24       	eor	r1, r1
     91c:	90 93 ac 07 	sts	0x07AC, r25	; 0x8007ac <_ZN9Servo2To69_MinAngleE+0x1>
     920:	80 93 ab 07 	sts	0x07AB, r24	; 0x8007ab <_ZN9Servo2To69_MinAngleE>
	_MaxAngle = _MidAngle + (20 * (anglerange/2));
     924:	34 9f       	mul	r19, r20
     926:	60 0d       	add	r22, r0
     928:	71 1d       	adc	r23, r1
     92a:	11 24       	eor	r1, r1
     92c:	70 93 a8 07 	sts	0x07A8, r23	; 0x8007a8 <_ZN9Servo2To69_MaxAngleE+0x1>
     930:	60 93 a7 07 	sts	0x07A7, r22	; 0x8007a7 <_ZN9Servo2To69_MaxAngleE>
			break;
		case ServoType::digital300:
			DelayValue = (uint16_t)(pwmdelay / 3);
			break;
	} // switch
	DelayValue = pwmdelay;			// at 50Hz = 50 is one second delay
     934:	20 93 02 01 	sts	0x0102, r18	; 0x800102 <_ZN9Servo2To610DelayValueE>
	_MinDecision = 78; //(uint8_t)((23.4375 - (0.15625 * ((float)anglerange/4.0))) + 0.5);
     938:	8e e4       	ldi	r24, 0x4E	; 78
     93a:	80 93 a6 07 	sts	0x07A6, r24	; 0x8007a6 <_ZN9Servo2To612_MinDecisionE>
	_MaxDecision = 137; //(uint8_t)((23.4375 + (0.15625 * ((float)anglerange/4.0))) + 0.5);
     93e:	89 e8       	ldi	r24, 0x89	; 137
     940:	80 93 a5 07 	sts	0x07A5, r24	; 0x8007a5 <_ZN9Servo2To612_MaxDecisionE>

	// ---------------- PIN Configurations
	ServoOpenDir |= (1 << SV12OpenPin) | (1 << SV34OpenPin) | (1 << SV56OpenPin);			// SwitchPort and ServoOpenPort to OUTPUT
     944:	8a b1       	in	r24, 0x0a	; 10
     946:	88 63       	ori	r24, 0x38	; 56
     948:	8a b9       	out	0x0a, r24	; 10
	ServoOpenPort &= ~((1 << SV12OpenPin) | (1 << SV34OpenPin) | (1 << SV56OpenPin));		// All Servos signal off
     94a:	8b b1       	in	r24, 0x0b	; 11
     94c:	87 7c       	andi	r24, 0xC7	; 199
     94e:	8b b9       	out	0x0b, r24	; 11

	PWMOutDir |= ( 1 << PWMOut1Pin) | (1 << PWMOUT2Pin);									// PWM Pins to OUTPUT
     950:	84 b1       	in	r24, 0x04	; 4
     952:	86 60       	ori	r24, 0x06	; 6
     954:	84 b9       	out	0x04, r24	; 4
	PWMOutPort &= ~(( 1 << PWMOut1Pin) | (1 << PWMOUT2Pin));								// PWM Pins to LOW
     956:	85 b1       	in	r24, 0x05	; 5
     958:	89 7f       	andi	r24, 0xF9	; 249
     95a:	85 b9       	out	0x05, r24	; 5

	PwmOnDir |= (1 << PwmOn12Pin) | (1 << PwmOn34Pin) | (PwmOn56Pin);						// PWM-ON Pins to OUTPUT
     95c:	87 b1       	in	r24, 0x07	; 7
     95e:	83 60       	ori	r24, 0x03	; 3
     960:	87 b9       	out	0x07, r24	; 7
	PwmOnPort &= ~((1 << PwmOn12Pin) | (1 << PwmOn34Pin) | (PwmOn56Pin));					// PWM-ON Pins to LOW
     962:	88 b1       	in	r24, 0x08	; 8
     964:	8c 7f       	andi	r24, 0xFC	; 252
     966:	88 b9       	out	0x08, r24	; 8

	EICRA |= (1 << ISC00);			// INT0 -> SigSwitch: any logical change on PD2 generates an Interrupt
     968:	e9 e6       	ldi	r30, 0x69	; 105
     96a:	f0 e0       	ldi	r31, 0x00	; 0
     96c:	80 81       	ld	r24, Z
     96e:	81 60       	ori	r24, 0x01	; 1
     970:	80 83       	st	Z, r24
	PCICR |= (1 << PCIE1);			// PCINT11 -> SigS1:  any logical change on PC3 generates an Interrupt
     972:	e8 e6       	ldi	r30, 0x68	; 104
     974:	f0 e0       	ldi	r31, 0x00	; 0
     976:	80 81       	ld	r24, Z
     978:	82 60       	ori	r24, 0x02	; 2
     97a:	80 83       	st	Z, r24

	initPWMTimer1();
     97c:	0e 94 2c 04 	call	0x858	; 0x858 <_ZN9Servo2To613initPWMTimer1Ev>
	TCCR2B |= (1 << WGM21);			// CTC Mode ThreemsTimer 2
     980:	e1 eb       	ldi	r30, 0xB1	; 177
     982:	f0 e0       	ldi	r31, 0x00	; 0
     984:	80 81       	ld	r24, Z
     986:	82 60       	ori	r24, 0x02	; 2
     988:	80 83       	st	Z, r24
	OCR2A = 188;					// 3ms =((F_CPU / N / 1000) * 3)
     98a:	8c eb       	ldi	r24, 0xBC	; 188
     98c:	80 93 b3 00 	sts	0x00B3, r24	; 0x8000b3 <__TEXT_REGION_LENGTH__+0x7e00b3>
	TIMSK2 |= (1 << OCIE2A);		// enable Timer2 interrupt reaching OCR2A value
     990:	e0 e7       	ldi	r30, 0x70	; 112
     992:	f0 e0       	ldi	r31, 0x00	; 0
     994:	80 81       	ld	r24, Z
     996:	82 60       	ori	r24, 0x02	; 2
     998:	80 83       	st	Z, r24
	SwitchSenseISR(true);
     99a:	81 e0       	ldi	r24, 0x01	; 1
     99c:	0e 94 07 04 	call	0x80e	; 0x80e <_ZN9Servo2To614SwitchSenseISREb>
     9a0:	08 95       	ret

000009a2 <_ZN11ServoEEPROM8readDataEv>:
{
	uint8_t actLength = strlen(v);
	if (actLength > 5) actLength = 5;
	memcpy(eepromValues.version, v, actLength + 1);
	if(write) writeData();
}
     9a2:	45 e3       	ldi	r20, 0x35	; 53
     9a4:	50 e0       	ldi	r21, 0x00	; 0
     9a6:	60 e5       	ldi	r22, 0x50	; 80
     9a8:	70 e0       	ldi	r23, 0x00	; 0
     9aa:	0e 94 f2 0a 	call	0x15e4	; 0x15e4 <eeprom_read_block>
     9ae:	08 95       	ret

000009b0 <_ZN11ServoEEPROM13getInitValuesEb>:
     9b0:	0f 93       	push	r16
     9b2:	1f 93       	push	r17
     9b4:	cf 93       	push	r28
     9b6:	df 93       	push	r29
     9b8:	ec 01       	movw	r28, r24
     9ba:	8b 01       	movw	r16, r22
     9bc:	44 23       	and	r20, r20
     9be:	19 f0       	breq	.+6      	; 0x9c6 <_ZN11ServoEEPROM13getInitValuesEb+0x16>
     9c0:	cb 01       	movw	r24, r22
     9c2:	0e 94 d1 04 	call	0x9a2	; 0x9a2 <_ZN11ServoEEPROM8readDataEv>
     9c6:	85 e3       	ldi	r24, 0x35	; 53
     9c8:	f8 01       	movw	r30, r16
     9ca:	de 01       	movw	r26, r28
     9cc:	01 90       	ld	r0, Z+
     9ce:	0d 92       	st	X+, r0
     9d0:	8a 95       	dec	r24
     9d2:	e1 f7       	brne	.-8      	; 0x9cc <_ZN11ServoEEPROM13getInitValuesEb+0x1c>
     9d4:	ce 01       	movw	r24, r28
     9d6:	df 91       	pop	r29
     9d8:	cf 91       	pop	r28
     9da:	1f 91       	pop	r17
     9dc:	0f 91       	pop	r16
     9de:	08 95       	ret

000009e0 <_ZN11ServoEEPROMC1Ev>:
     9e0:	0e 94 d1 04 	call	0x9a2	; 0x9a2 <_ZN11ServoEEPROM8readDataEv>
     9e4:	08 95       	ret

000009e6 <_ZN11ServoEEPROM9writeDataEv>:
     9e6:	45 e3       	ldi	r20, 0x35	; 53
     9e8:	50 e0       	ldi	r21, 0x00	; 0
     9ea:	60 e5       	ldi	r22, 0x50	; 80
     9ec:	70 e0       	ldi	r23, 0x00	; 0
     9ee:	0e 94 02 0b 	call	0x1604	; 0x1604 <eeprom_update_block>
     9f2:	08 95       	ret

000009f4 <_ZN11ServoEEPROM13setInitValuesE17EEPROM_initValues>:
     9f4:	cf 93       	push	r28
     9f6:	df 93       	push	r29
     9f8:	cd b7       	in	r28, 0x3d	; 61
     9fa:	de b7       	in	r29, 0x3e	; 62
     9fc:	fc 01       	movw	r30, r24
     9fe:	89 e3       	ldi	r24, 0x39	; 57
     a00:	90 e3       	ldi	r25, 0x30	; 48
     a02:	91 83       	std	Z+1, r25	; 0x01
     a04:	80 83       	st	Z, r24
     a06:	8c a9       	ldd	r24, Y+52	; 0x34
     a08:	9d a9       	ldd	r25, Y+53	; 0x35
     a0a:	90 ab       	std	Z+48, r25	; 0x30
     a0c:	87 a7       	std	Z+47, r24	; 0x2f
     a0e:	8e a9       	ldd	r24, Y+54	; 0x36
     a10:	81 ab       	std	Z+49, r24	; 0x31
     a12:	8f a9       	ldd	r24, Y+55	; 0x37
     a14:	82 ab       	std	Z+50, r24	; 0x32
     a16:	88 ad       	ldd	r24, Y+56	; 0x38
     a18:	99 ad       	ldd	r25, Y+57	; 0x39
     a1a:	94 ab       	std	Z+52, r25	; 0x34
     a1c:	83 ab       	std	Z+51, r24	; 0x33
     a1e:	cf 01       	movw	r24, r30
     a20:	0e 94 f3 04 	call	0x9e6	; 0x9e6 <_ZN11ServoEEPROM9writeDataEv>
     a24:	df 91       	pop	r29
     a26:	cf 91       	pop	r28
     a28:	08 95       	ret

00000a2a <_ZN11ServoEEPROM12setServoTypeE9ServoTypeb>:
 * 
 * \return void
 */
void ServoEEPROM::setServoType(ServoType st, bool write /*= false*/)
{
	eepromValues.servoType = st;
     a2a:	fc 01       	movw	r30, r24
     a2c:	70 ab       	std	Z+48, r23	; 0x30
     a2e:	67 a7       	std	Z+47, r22	; 0x2f
	if(write) writeData();
     a30:	41 11       	cpse	r20, r1
     a32:	0e 94 f3 04 	call	0x9e6	; 0x9e6 <_ZN11ServoEEPROM9writeDataEv>
     a36:	08 95       	ret

00000a38 <_ZN11ServoEEPROM15setNullStellungEab>:
 * 
 * \return void
 */
void ServoEEPROM::setNullStellung(int8_t ns, bool write /*= false*/)
{
	eepromValues.SNullStellung = ns;
     a38:	fc 01       	movw	r30, r24
     a3a:	61 ab       	std	Z+49, r22	; 0x31
	if(write) writeData();
     a3c:	41 11       	cpse	r20, r1
     a3e:	0e 94 f3 04 	call	0x9e6	; 0x9e6 <_ZN11ServoEEPROM9writeDataEv>
     a42:	08 95       	ret

00000a44 <_ZN11ServoEEPROM13setAngleRangeEhb>:
 * 
 * \return void
 */
void ServoEEPROM::setAngleRange(uint8_t ar, bool write /*= false*/)
{
	eepromValues.AngleRange = ar;
     a44:	fc 01       	movw	r30, r24
     a46:	62 ab       	std	Z+50, r22	; 0x32
	if(write) writeData();
     a48:	41 11       	cpse	r20, r1
     a4a:	0e 94 f3 04 	call	0x9e6	; 0x9e6 <_ZN11ServoEEPROM9writeDataEv>
     a4e:	08 95       	ret

00000a50 <_ZN11ServoEEPROM11setPWMDelayEjb>:
 * 
 * \return void
 */
void ServoEEPROM::setPWMDelay( uint16_t del, bool write /*= false*/ )
{
	if(del > 100) {
     a50:	65 36       	cpi	r22, 0x65	; 101
     a52:	71 05       	cpc	r23, r1
     a54:	30 f0       	brcs	.+12     	; 0xa62 <_ZN11ServoEEPROM11setPWMDelayEjb+0x12>
		eepromValues.PWMDelay = del;
     a56:	fc 01       	movw	r30, r24
     a58:	74 ab       	std	Z+52, r23	; 0x34
     a5a:	63 ab       	std	Z+51, r22	; 0x33
		if(write) writeData();
     a5c:	41 11       	cpse	r20, r1
     a5e:	0e 94 f3 04 	call	0x9e6	; 0x9e6 <_ZN11ServoEEPROM9writeDataEv>
     a62:	08 95       	ret

00000a64 <_ZN11ServoEEPROMD1Ev>:
void ServoEEPROM::writeData() {
	eeprom_update_block(&eepromValues, (void*)EEPROMADRESS, sizeof(eepromValues));
}

// default destructor
ServoEEPROM::~ServoEEPROM()
     a64:	08 95       	ret

00000a66 <_ZN12usartHelpers13ServoTypeMenuE9ServoType>:
	  *  ServoType enum
	  * \return void
	  */
	 void ServoTypeMenu(ServoType st)
	 {
		 switch(st) {
     a66:	84 36       	cpi	r24, 0x64	; 100
     a68:	91 05       	cpc	r25, r1
     a6a:	99 f0       	breq	.+38     	; 0xa92 <_ZN12usartHelpers13ServoTypeMenuE9ServoType+0x2c>
     a6c:	1c f4       	brge	.+6      	; 0xa74 <_ZN12usartHelpers13ServoTypeMenuE9ServoType+0xe>
     a6e:	c2 97       	sbiw	r24, 0x32	; 50
     a70:	41 f0       	breq	.+16     	; 0xa82 <_ZN12usartHelpers13ServoTypeMenuE9ServoType+0x1c>
     a72:	08 95       	ret
     a74:	88 3c       	cpi	r24, 0xC8	; 200
     a76:	91 05       	cpc	r25, r1
     a78:	a1 f0       	breq	.+40     	; 0xaa2 <_ZN12usartHelpers13ServoTypeMenuE9ServoType+0x3c>
     a7a:	8c 32       	cpi	r24, 0x2C	; 44
     a7c:	91 40       	sbci	r25, 0x01	; 1
     a7e:	c9 f0       	breq	.+50     	; 0xab2 <_ZN12usartHelpers13ServoTypeMenuE9ServoType+0x4c>
     a80:	08 95       	ret
			 case ServoType::analog:
			 uart.write((char*)"analog  -  50Hz\0", true);
     a82:	41 e0       	ldi	r20, 0x01	; 1
     a84:	69 ed       	ldi	r22, 0xD9	; 217
     a86:	71 e0       	ldi	r23, 0x01	; 1
     a88:	8e e6       	ldi	r24, 0x6E	; 110
     a8a:	97 e0       	ldi	r25, 0x07	; 7
     a8c:	0e 94 3e 03 	call	0x67c	; 0x67c <_ZN6myUart5writeEPcb>
			 break;
     a90:	08 95       	ret
			 case ServoType::digital100:
			 uart.write((char*)"digital - 100Hz\0", true);
     a92:	41 e0       	ldi	r20, 0x01	; 1
     a94:	6a ee       	ldi	r22, 0xEA	; 234
     a96:	71 e0       	ldi	r23, 0x01	; 1
     a98:	8e e6       	ldi	r24, 0x6E	; 110
     a9a:	97 e0       	ldi	r25, 0x07	; 7
     a9c:	0e 94 3e 03 	call	0x67c	; 0x67c <_ZN6myUart5writeEPcb>
			 break;
     aa0:	08 95       	ret
			 case ServoType::digital200:
			 uart.write((char*)"digital - 200Hz\0", true);
     aa2:	41 e0       	ldi	r20, 0x01	; 1
     aa4:	6b ef       	ldi	r22, 0xFB	; 251
     aa6:	71 e0       	ldi	r23, 0x01	; 1
     aa8:	8e e6       	ldi	r24, 0x6E	; 110
     aaa:	97 e0       	ldi	r25, 0x07	; 7
     aac:	0e 94 3e 03 	call	0x67c	; 0x67c <_ZN6myUart5writeEPcb>
			 break;
     ab0:	08 95       	ret
			 case ServoType::digital300:
			 uart.write((char*)"digital - 300Hz\0", true);
     ab2:	41 e0       	ldi	r20, 0x01	; 1
     ab4:	6c e0       	ldi	r22, 0x0C	; 12
     ab6:	72 e0       	ldi	r23, 0x02	; 2
     ab8:	8e e6       	ldi	r24, 0x6E	; 110
     aba:	97 e0       	ldi	r25, 0x07	; 7
     abc:	0e 94 3e 03 	call	0x67c	; 0x67c <_ZN6myUart5writeEPcb>
     ac0:	08 95       	ret

00000ac2 <_ZN12usartHelpers15ChangeServoTypeEv>:
	  *  uart submenu for changing the servotype (pwm frequency selection) out of
	  *  for predefined servotypes (=frequencies)
	  * 
	  * \return void
	  */
	 void ChangeServoType() {
     ac2:	1f 93       	push	r17
     ac4:	cf 93       	push	r28
     ac6:	df 93       	push	r29
     ac8:	cd b7       	in	r28, 0x3d	; 61
     aca:	de b7       	in	r29, 0x3e	; 62
     acc:	e5 97       	sbiw	r28, 0x35	; 53
     ace:	0f b6       	in	r0, 0x3f	; 63
     ad0:	f8 94       	cli
     ad2:	de bf       	out	0x3e, r29	; 62
     ad4:	0f be       	out	0x3f, r0	; 63
     ad6:	cd bf       	out	0x3d, r28	; 61

		unsigned char x = '0';
		
		while (x != 'q') {		
			uart.cls();
     ad8:	8e e6       	ldi	r24, 0x6E	; 110
     ada:	97 e0       	ldi	r25, 0x07	; 7
     adc:	0e 94 16 03 	call	0x62c	; 0x62c <_ZN6myUart3clsEv>
			uart.write((char*)"Servo Multiplier --> Change Servotype\0", true);
     ae0:	41 e0       	ldi	r20, 0x01	; 1
     ae2:	6d e1       	ldi	r22, 0x1D	; 29
     ae4:	72 e0       	ldi	r23, 0x02	; 2
     ae6:	8e e6       	ldi	r24, 0x6E	; 110
     ae8:	97 e0       	ldi	r25, 0x07	; 7
     aea:	0e 94 3e 03 	call	0x67c	; 0x67c <_ZN6myUart5writeEPcb>
			uart.LfCr();
     aee:	8e e6       	ldi	r24, 0x6E	; 110
     af0:	97 e0       	ldi	r25, 0x07	; 7
     af2:	0e 94 f7 02 	call	0x5ee	; 0x5ee <_ZN6myUart4LfCrEv>
			uart.write((char*)"Current Servotype: \0"); ServoTypeMenu(initValues.getInitValues().servoType);
     af6:	40 e0       	ldi	r20, 0x00	; 0
     af8:	64 e4       	ldi	r22, 0x44	; 68
     afa:	72 e0       	ldi	r23, 0x02	; 2
     afc:	8e e6       	ldi	r24, 0x6E	; 110
     afe:	97 e0       	ldi	r25, 0x07	; 7
     b00:	0e 94 3e 03 	call	0x67c	; 0x67c <_ZN6myUart5writeEPcb>
     b04:	40 e0       	ldi	r20, 0x00	; 0
     b06:	60 e7       	ldi	r22, 0x70	; 112
     b08:	77 e0       	ldi	r23, 0x07	; 7
     b0a:	ce 01       	movw	r24, r28
     b0c:	01 96       	adiw	r24, 0x01	; 1
     b0e:	0e 94 d8 04 	call	0x9b0	; 0x9b0 <_ZN11ServoEEPROM13getInitValuesEb>
     b12:	88 a9       	ldd	r24, Y+48	; 0x30
     b14:	99 a9       	ldd	r25, Y+49	; 0x31
     b16:	0e 94 33 05 	call	0xa66	; 0xa66 <_ZN12usartHelpers13ServoTypeMenuE9ServoType>
			uart.write((char*)"Select new Servotype:\0", true);
     b1a:	41 e0       	ldi	r20, 0x01	; 1
     b1c:	69 e5       	ldi	r22, 0x59	; 89
     b1e:	72 e0       	ldi	r23, 0x02	; 2
     b20:	8e e6       	ldi	r24, 0x6E	; 110
     b22:	97 e0       	ldi	r25, 0x07	; 7
     b24:	0e 94 3e 03 	call	0x67c	; 0x67c <_ZN6myUart5writeEPcb>
			uart.write((char *)"  1 \0"); ServoTypeMenu(ServoType::analog);
     b28:	40 e0       	ldi	r20, 0x00	; 0
     b2a:	60 e7       	ldi	r22, 0x70	; 112
     b2c:	72 e0       	ldi	r23, 0x02	; 2
     b2e:	8e e6       	ldi	r24, 0x6E	; 110
     b30:	97 e0       	ldi	r25, 0x07	; 7
     b32:	0e 94 3e 03 	call	0x67c	; 0x67c <_ZN6myUart5writeEPcb>
     b36:	82 e3       	ldi	r24, 0x32	; 50
     b38:	90 e0       	ldi	r25, 0x00	; 0
     b3a:	0e 94 33 05 	call	0xa66	; 0xa66 <_ZN12usartHelpers13ServoTypeMenuE9ServoType>
			uart.write((char *)"  2 \0"); ServoTypeMenu(ServoType::digital100);
     b3e:	40 e0       	ldi	r20, 0x00	; 0
     b40:	66 e7       	ldi	r22, 0x76	; 118
     b42:	72 e0       	ldi	r23, 0x02	; 2
     b44:	8e e6       	ldi	r24, 0x6E	; 110
     b46:	97 e0       	ldi	r25, 0x07	; 7
     b48:	0e 94 3e 03 	call	0x67c	; 0x67c <_ZN6myUart5writeEPcb>
     b4c:	84 e6       	ldi	r24, 0x64	; 100
     b4e:	90 e0       	ldi	r25, 0x00	; 0
     b50:	0e 94 33 05 	call	0xa66	; 0xa66 <_ZN12usartHelpers13ServoTypeMenuE9ServoType>
			uart.write((char *)"  3 \0"); ServoTypeMenu(ServoType::digital200);
     b54:	40 e0       	ldi	r20, 0x00	; 0
     b56:	6c e7       	ldi	r22, 0x7C	; 124
     b58:	72 e0       	ldi	r23, 0x02	; 2
     b5a:	8e e6       	ldi	r24, 0x6E	; 110
     b5c:	97 e0       	ldi	r25, 0x07	; 7
     b5e:	0e 94 3e 03 	call	0x67c	; 0x67c <_ZN6myUart5writeEPcb>
     b62:	88 ec       	ldi	r24, 0xC8	; 200
     b64:	90 e0       	ldi	r25, 0x00	; 0
     b66:	0e 94 33 05 	call	0xa66	; 0xa66 <_ZN12usartHelpers13ServoTypeMenuE9ServoType>
			uart.write((char *)"  4 \0"); ServoTypeMenu(ServoType::digital300);
     b6a:	40 e0       	ldi	r20, 0x00	; 0
     b6c:	62 e8       	ldi	r22, 0x82	; 130
     b6e:	72 e0       	ldi	r23, 0x02	; 2
     b70:	8e e6       	ldi	r24, 0x6E	; 110
     b72:	97 e0       	ldi	r25, 0x07	; 7
     b74:	0e 94 3e 03 	call	0x67c	; 0x67c <_ZN6myUart5writeEPcb>
     b78:	8c e2       	ldi	r24, 0x2C	; 44
     b7a:	91 e0       	ldi	r25, 0x01	; 1
     b7c:	0e 94 33 05 	call	0xa66	; 0xa66 <_ZN12usartHelpers13ServoTypeMenuE9ServoType>
			uart.LfCr();
     b80:	8e e6       	ldi	r24, 0x6E	; 110
     b82:	97 e0       	ldi	r25, 0x07	; 7
     b84:	0e 94 f7 02 	call	0x5ee	; 0x5ee <_ZN6myUart4LfCrEv>
			uart.write((char *)"  q Exit\0", true);
     b88:	41 e0       	ldi	r20, 0x01	; 1
     b8a:	68 e8       	ldi	r22, 0x88	; 136
     b8c:	72 e0       	ldi	r23, 0x02	; 2
     b8e:	8e e6       	ldi	r24, 0x6E	; 110
     b90:	97 e0       	ldi	r25, 0x07	; 7
     b92:	0e 94 3e 03 	call	0x67c	; 0x67c <_ZN6myUart5writeEPcb>
			uart.write((char *)"Select-->\0");
     b96:	40 e0       	ldi	r20, 0x00	; 0
     b98:	62 e9       	ldi	r22, 0x92	; 146
     b9a:	72 e0       	ldi	r23, 0x02	; 2
     b9c:	8e e6       	ldi	r24, 0x6E	; 110
     b9e:	97 e0       	ldi	r25, 0x07	; 7
     ba0:	0e 94 3e 03 	call	0x67c	; 0x67c <_ZN6myUart5writeEPcb>

			x = uart.read();
     ba4:	8e e6       	ldi	r24, 0x6E	; 110
     ba6:	97 e0       	ldi	r25, 0x07	; 7
     ba8:	0e 94 e3 02 	call	0x5c6	; 0x5c6 <_ZN6myUart4readEv>
     bac:	18 2f       	mov	r17, r24
			switch (x) {
     bae:	82 33       	cpi	r24, 0x32	; 50
     bb0:	89 f0       	breq	.+34     	; 0xbd4 <_ZN12usartHelpers15ChangeServoTypeEv+0x112>
     bb2:	18 f4       	brcc	.+6      	; 0xbba <_ZN12usartHelpers15ChangeServoTypeEv+0xf8>
     bb4:	81 33       	cpi	r24, 0x31	; 49
     bb6:	31 f0       	breq	.+12     	; 0xbc4 <_ZN12usartHelpers15ChangeServoTypeEv+0x102>
     bb8:	25 c0       	rjmp	.+74     	; 0xc04 <_ZN12usartHelpers15ChangeServoTypeEv+0x142>
     bba:	83 33       	cpi	r24, 0x33	; 51
     bbc:	99 f0       	breq	.+38     	; 0xbe4 <_ZN12usartHelpers15ChangeServoTypeEv+0x122>
     bbe:	84 33       	cpi	r24, 0x34	; 52
     bc0:	c9 f0       	breq	.+50     	; 0xbf4 <_ZN12usartHelpers15ChangeServoTypeEv+0x132>
     bc2:	20 c0       	rjmp	.+64     	; 0xc04 <_ZN12usartHelpers15ChangeServoTypeEv+0x142>
				case '1':
					initValues.setServoType(ServoType::analog, false);
     bc4:	40 e0       	ldi	r20, 0x00	; 0
     bc6:	62 e3       	ldi	r22, 0x32	; 50
     bc8:	70 e0       	ldi	r23, 0x00	; 0
     bca:	80 e7       	ldi	r24, 0x70	; 112
     bcc:	97 e0       	ldi	r25, 0x07	; 7
     bce:	0e 94 15 05 	call	0xa2a	; 0xa2a <_ZN11ServoEEPROM12setServoTypeE9ServoTypeb>
					break;
     bd2:	24 c0       	rjmp	.+72     	; 0xc1c <_ZN12usartHelpers15ChangeServoTypeEv+0x15a>
				case '2':
					initValues.setServoType(ServoType::digital100, false);
     bd4:	40 e0       	ldi	r20, 0x00	; 0
     bd6:	64 e6       	ldi	r22, 0x64	; 100
     bd8:	70 e0       	ldi	r23, 0x00	; 0
     bda:	80 e7       	ldi	r24, 0x70	; 112
     bdc:	97 e0       	ldi	r25, 0x07	; 7
     bde:	0e 94 15 05 	call	0xa2a	; 0xa2a <_ZN11ServoEEPROM12setServoTypeE9ServoTypeb>
					break;
     be2:	1c c0       	rjmp	.+56     	; 0xc1c <_ZN12usartHelpers15ChangeServoTypeEv+0x15a>
				case '3':
					initValues.setServoType(ServoType::digital200, false);
     be4:	40 e0       	ldi	r20, 0x00	; 0
     be6:	68 ec       	ldi	r22, 0xC8	; 200
     be8:	70 e0       	ldi	r23, 0x00	; 0
     bea:	80 e7       	ldi	r24, 0x70	; 112
     bec:	97 e0       	ldi	r25, 0x07	; 7
     bee:	0e 94 15 05 	call	0xa2a	; 0xa2a <_ZN11ServoEEPROM12setServoTypeE9ServoTypeb>
					break;
     bf2:	14 c0       	rjmp	.+40     	; 0xc1c <_ZN12usartHelpers15ChangeServoTypeEv+0x15a>
				case '4':
					initValues.setServoType(ServoType::digital300, false);
     bf4:	40 e0       	ldi	r20, 0x00	; 0
     bf6:	6c e2       	ldi	r22, 0x2C	; 44
     bf8:	71 e0       	ldi	r23, 0x01	; 1
     bfa:	80 e7       	ldi	r24, 0x70	; 112
     bfc:	97 e0       	ldi	r25, 0x07	; 7
     bfe:	0e 94 15 05 	call	0xa2a	; 0xa2a <_ZN11ServoEEPROM12setServoTypeE9ServoTypeb>
					break;				
     c02:	0c c0       	rjmp	.+24     	; 0xc1c <_ZN12usartHelpers15ChangeServoTypeEv+0x15a>
			} // switch
			uart.LfCr();
     c04:	8e e6       	ldi	r24, 0x6E	; 110
     c06:	97 e0       	ldi	r25, 0x07	; 7
     c08:	0e 94 f7 02 	call	0x5ee	; 0x5ee <_ZN6myUart4LfCrEv>
			uart.LfCr();
     c0c:	8e e6       	ldi	r24, 0x6E	; 110
     c0e:	97 e0       	ldi	r25, 0x07	; 7
     c10:	0e 94 f7 02 	call	0x5ee	; 0x5ee <_ZN6myUart4LfCrEv>
	  */
	 void ChangeServoType() {

		unsigned char x = '0';
		
		while (x != 'q') {		
     c14:	11 37       	cpi	r17, 0x71	; 113
     c16:	09 f0       	breq	.+2      	; 0xc1a <_ZN12usartHelpers15ChangeServoTypeEv+0x158>
     c18:	5f cf       	rjmp	.-322    	; 0xad8 <_ZN12usartHelpers15ChangeServoTypeEv+0x16>
     c1a:	09 c0       	rjmp	.+18     	; 0xc2e <_ZN12usartHelpers15ChangeServoTypeEv+0x16c>
					break;
				case '4':
					initValues.setServoType(ServoType::digital300, false);
					break;				
			} // switch
			uart.LfCr();
     c1c:	8e e6       	ldi	r24, 0x6E	; 110
     c1e:	97 e0       	ldi	r25, 0x07	; 7
     c20:	0e 94 f7 02 	call	0x5ee	; 0x5ee <_ZN6myUart4LfCrEv>
			uart.LfCr();
     c24:	8e e6       	ldi	r24, 0x6E	; 110
     c26:	97 e0       	ldi	r25, 0x07	; 7
     c28:	0e 94 f7 02 	call	0x5ee	; 0x5ee <_ZN6myUart4LfCrEv>
     c2c:	55 cf       	rjmp	.-342    	; 0xad8 <_ZN12usartHelpers15ChangeServoTypeEv+0x16>
		} // while
	}
     c2e:	e5 96       	adiw	r28, 0x35	; 53
     c30:	0f b6       	in	r0, 0x3f	; 63
     c32:	f8 94       	cli
     c34:	de bf       	out	0x3e, r29	; 62
     c36:	0f be       	out	0x3f, r0	; 63
     c38:	cd bf       	out	0x3d, r28	; 61
     c3a:	df 91       	pop	r29
     c3c:	cf 91       	pop	r28
     c3e:	1f 91       	pop	r17
     c40:	08 95       	ret

00000c42 <_ZN12usartHelpers18ChangeNullstellungEv>:
	 * \brief 
	 *  uart submenu for changing servo zero position deviation from 90 (middle position 1500s) in degree
	 * 
	 * \return void
	 */
	void ChangeNullstellung() {
     c42:	cf 92       	push	r12
     c44:	df 92       	push	r13
     c46:	ef 92       	push	r14
     c48:	ff 92       	push	r15
     c4a:	0f 93       	push	r16
     c4c:	1f 93       	push	r17
     c4e:	cf 93       	push	r28
     c50:	df 93       	push	r29
     c52:	cd b7       	in	r28, 0x3d	; 61
     c54:	de b7       	in	r29, 0x3e	; 62
     c56:	e9 97       	sbiw	r28, 0x39	; 57
     c58:	0f b6       	in	r0, 0x3f	; 63
     c5a:	f8 94       	cli
     c5c:	de bf       	out	0x3e, r29	; 62
     c5e:	0f be       	out	0x3f, r0	; 63
     c60:	cd bf       	out	0x3d, r28	; 61
		char dev[4];
		bool exit;
		int8_t maxMinus = -90 + (int8_t)(initValues.getInitValues(false).AngleRange/2);
     c62:	40 e0       	ldi	r20, 0x00	; 0
     c64:	60 e7       	ldi	r22, 0x70	; 112
     c66:	77 e0       	ldi	r23, 0x07	; 7
     c68:	ce 01       	movw	r24, r28
     c6a:	05 96       	adiw	r24, 0x05	; 5
     c6c:	0e 94 d8 04 	call	0x9b0	; 0x9b0 <_ZN11ServoEEPROM13getInitValuesEb>
     c70:	df a8       	ldd	r13, Y+55	; 0x37
     c72:	8d 2d       	mov	r24, r13
     c74:	86 95       	lsr	r24
     c76:	0f 2e       	mov	r0, r31
     c78:	f6 ea       	ldi	r31, 0xA6	; 166
     c7a:	df 2e       	mov	r13, r31
     c7c:	f0 2d       	mov	r31, r0
     c7e:	d8 0e       	add	r13, r24
		int8_t maxPlus = 90 - (int8_t)(initValues.getInitValues(false).AngleRange/2);
     c80:	40 e0       	ldi	r20, 0x00	; 0
     c82:	60 e7       	ldi	r22, 0x70	; 112
     c84:	77 e0       	ldi	r23, 0x07	; 7
     c86:	ce 01       	movw	r24, r28
     c88:	05 96       	adiw	r24, 0x05	; 5
     c8a:	0e 94 d8 04 	call	0x9b0	; 0x9b0 <_ZN11ServoEEPROM13getInitValuesEb>
     c8e:	9f a9       	ldd	r25, Y+55	; 0x37
     c90:	96 95       	lsr	r25
     c92:	8a e5       	ldi	r24, 0x5A	; 90
     c94:	c8 2e       	mov	r12, r24
     c96:	c9 1a       	sub	r12, r25
			uart.write((char*)"For the angle range can not exceed 180 degree the zeroing can only be changed\0", true);
			uart.write((char*)"when angle range is less than 180!", true);
			uart.LfCr();
			uart.write((char*)"Current deviation: \0"); uart.write(initValues.getInitValues().SNullStellung);
			uart.write((char*)" degree\0", true);
			uart.write((char*)"Enter integer value between \0"); uart.write((int16_t)maxMinus);  uart.write((char*)" and \0"); uart.write((int16_t)maxPlus); uart.write((char*)" or press 'q' for quit without changes: \0", true);
     c98:	ed 2c       	mov	r14, r13
     c9a:	0d 2c       	mov	r0, r13
     c9c:	00 0c       	add	r0, r0
     c9e:	ff 08       	sbc	r15, r15
     ca0:	0c 2d       	mov	r16, r12
     ca2:	0c 2c       	mov	r0, r12
     ca4:	00 0c       	add	r0, r0
     ca6:	11 0b       	sbc	r17, r17
		char dev[4];
		bool exit;
		int8_t maxMinus = -90 + (int8_t)(initValues.getInitValues(false).AngleRange/2);
		int8_t maxPlus = 90 - (int8_t)(initValues.getInitValues(false).AngleRange/2);
		do {
		uart.cls();
     ca8:	8e e6       	ldi	r24, 0x6E	; 110
     caa:	97 e0       	ldi	r25, 0x07	; 7
     cac:	0e 94 16 03 	call	0x62c	; 0x62c <_ZN6myUart3clsEv>
			exit = false;
			uart.write((char*)"Servo Multiplier --> Change zeroing\0", true);
     cb0:	41 e0       	ldi	r20, 0x01	; 1
     cb2:	6d e9       	ldi	r22, 0x9D	; 157
     cb4:	72 e0       	ldi	r23, 0x02	; 2
     cb6:	8e e6       	ldi	r24, 0x6E	; 110
     cb8:	97 e0       	ldi	r25, 0x07	; 7
     cba:	0e 94 3e 03 	call	0x67c	; 0x67c <_ZN6myUart5writeEPcb>
			uart.LfCr();
     cbe:	8e e6       	ldi	r24, 0x6E	; 110
     cc0:	97 e0       	ldi	r25, 0x07	; 7
     cc2:	0e 94 f7 02 	call	0x5ee	; 0x5ee <_ZN6myUart4LfCrEv>
			uart.write((char*)"Zeroing is the deviation in degree from the middle position (+,-)\0", true);
     cc6:	41 e0       	ldi	r20, 0x01	; 1
     cc8:	62 ec       	ldi	r22, 0xC2	; 194
     cca:	72 e0       	ldi	r23, 0x02	; 2
     ccc:	8e e6       	ldi	r24, 0x6E	; 110
     cce:	97 e0       	ldi	r25, 0x07	; 7
     cd0:	0e 94 3e 03 	call	0x67c	; 0x67c <_ZN6myUart5writeEPcb>
			uart.write((char*)"For the angle range can not exceed 180 degree the zeroing can only be changed\0", true);
     cd4:	41 e0       	ldi	r20, 0x01	; 1
     cd6:	65 e0       	ldi	r22, 0x05	; 5
     cd8:	73 e0       	ldi	r23, 0x03	; 3
     cda:	8e e6       	ldi	r24, 0x6E	; 110
     cdc:	97 e0       	ldi	r25, 0x07	; 7
     cde:	0e 94 3e 03 	call	0x67c	; 0x67c <_ZN6myUart5writeEPcb>
			uart.write((char*)"when angle range is less than 180!", true);
     ce2:	41 e0       	ldi	r20, 0x01	; 1
     ce4:	64 e4       	ldi	r22, 0x44	; 68
     ce6:	77 e0       	ldi	r23, 0x07	; 7
     ce8:	8e e6       	ldi	r24, 0x6E	; 110
     cea:	97 e0       	ldi	r25, 0x07	; 7
     cec:	0e 94 3e 03 	call	0x67c	; 0x67c <_ZN6myUart5writeEPcb>
			uart.LfCr();
     cf0:	8e e6       	ldi	r24, 0x6E	; 110
     cf2:	97 e0       	ldi	r25, 0x07	; 7
     cf4:	0e 94 f7 02 	call	0x5ee	; 0x5ee <_ZN6myUart4LfCrEv>
			uart.write((char*)"Current deviation: \0"); uart.write(initValues.getInitValues().SNullStellung);
     cf8:	40 e0       	ldi	r20, 0x00	; 0
     cfa:	64 e5       	ldi	r22, 0x54	; 84
     cfc:	73 e0       	ldi	r23, 0x03	; 3
     cfe:	8e e6       	ldi	r24, 0x6E	; 110
     d00:	97 e0       	ldi	r25, 0x07	; 7
     d02:	0e 94 3e 03 	call	0x67c	; 0x67c <_ZN6myUart5writeEPcb>
     d06:	40 e0       	ldi	r20, 0x00	; 0
     d08:	60 e7       	ldi	r22, 0x70	; 112
     d0a:	77 e0       	ldi	r23, 0x07	; 7
     d0c:	ce 01       	movw	r24, r28
     d0e:	05 96       	adiw	r24, 0x05	; 5
     d10:	0e 94 d8 04 	call	0x9b0	; 0x9b0 <_ZN11ServoEEPROM13getInitValuesEb>
     d14:	6e a9       	ldd	r22, Y+54	; 0x36
     d16:	06 2e       	mov	r0, r22
     d18:	00 0c       	add	r0, r0
     d1a:	77 0b       	sbc	r23, r23
     d1c:	40 e0       	ldi	r20, 0x00	; 0
     d1e:	8e e6       	ldi	r24, 0x6E	; 110
     d20:	97 e0       	ldi	r25, 0x07	; 7
     d22:	0e 94 5c 03 	call	0x6b8	; 0x6b8 <_ZN6myUart5writeEib>
			uart.write((char*)" degree\0", true);
     d26:	41 e0       	ldi	r20, 0x01	; 1
     d28:	69 e6       	ldi	r22, 0x69	; 105
     d2a:	73 e0       	ldi	r23, 0x03	; 3
     d2c:	8e e6       	ldi	r24, 0x6E	; 110
     d2e:	97 e0       	ldi	r25, 0x07	; 7
     d30:	0e 94 3e 03 	call	0x67c	; 0x67c <_ZN6myUart5writeEPcb>
			uart.write((char*)"Enter integer value between \0"); uart.write((int16_t)maxMinus);  uart.write((char*)" and \0"); uart.write((int16_t)maxPlus); uart.write((char*)" or press 'q' for quit without changes: \0", true);
     d34:	40 e0       	ldi	r20, 0x00	; 0
     d36:	62 e7       	ldi	r22, 0x72	; 114
     d38:	73 e0       	ldi	r23, 0x03	; 3
     d3a:	8e e6       	ldi	r24, 0x6E	; 110
     d3c:	97 e0       	ldi	r25, 0x07	; 7
     d3e:	0e 94 3e 03 	call	0x67c	; 0x67c <_ZN6myUart5writeEPcb>
     d42:	40 e0       	ldi	r20, 0x00	; 0
     d44:	b7 01       	movw	r22, r14
     d46:	8e e6       	ldi	r24, 0x6E	; 110
     d48:	97 e0       	ldi	r25, 0x07	; 7
     d4a:	0e 94 5c 03 	call	0x6b8	; 0x6b8 <_ZN6myUart5writeEib>
     d4e:	40 e0       	ldi	r20, 0x00	; 0
     d50:	60 e9       	ldi	r22, 0x90	; 144
     d52:	73 e0       	ldi	r23, 0x03	; 3
     d54:	8e e6       	ldi	r24, 0x6E	; 110
     d56:	97 e0       	ldi	r25, 0x07	; 7
     d58:	0e 94 3e 03 	call	0x67c	; 0x67c <_ZN6myUart5writeEPcb>
     d5c:	40 e0       	ldi	r20, 0x00	; 0
     d5e:	b8 01       	movw	r22, r16
     d60:	8e e6       	ldi	r24, 0x6E	; 110
     d62:	97 e0       	ldi	r25, 0x07	; 7
     d64:	0e 94 5c 03 	call	0x6b8	; 0x6b8 <_ZN6myUart5writeEib>
     d68:	41 e0       	ldi	r20, 0x01	; 1
     d6a:	67 e9       	ldi	r22, 0x97	; 151
     d6c:	73 e0       	ldi	r23, 0x03	; 3
     d6e:	8e e6       	ldi	r24, 0x6E	; 110
     d70:	97 e0       	ldi	r25, 0x07	; 7
     d72:	0e 94 3e 03 	call	0x67c	; 0x67c <_ZN6myUart5writeEPcb>
			uart.write((char*)"New deviation: \0");			
     d76:	40 e0       	ldi	r20, 0x00	; 0
     d78:	61 ec       	ldi	r22, 0xC1	; 193
     d7a:	73 e0       	ldi	r23, 0x03	; 3
     d7c:	8e e6       	ldi	r24, 0x6E	; 110
     d7e:	97 e0       	ldi	r25, 0x07	; 7
     d80:	0e 94 3e 03 	call	0x67c	; 0x67c <_ZN6myUart5writeEPcb>
			uart.read((unsigned char*)dev, 4);
     d84:	44 e0       	ldi	r20, 0x04	; 4
     d86:	be 01       	movw	r22, r28
     d88:	6f 5f       	subi	r22, 0xFF	; 255
     d8a:	7f 4f       	sbci	r23, 0xFF	; 255
     d8c:	8e e6       	ldi	r24, 0x6E	; 110
     d8e:	97 e0       	ldi	r25, 0x07	; 7
     d90:	0e 94 ae 02 	call	0x55c	; 0x55c <_ZN6myUart4readEPhh>
			uint8_t lauf = 0;
			if (dev[lauf] == 'q') {
     d94:	89 81       	ldd	r24, Y+1	; 0x01
     d96:	81 37       	cpi	r24, 0x71	; 113
     d98:	51 f1       	breq	.+84     	; 0xdee <_ZN12usartHelpers18ChangeNullstellungEv+0x1ac>
				exit = true;	
			} else {
				int8_t newVal = (int8_t)atoi(dev);
     d9a:	ce 01       	movw	r24, r28
     d9c:	01 96       	adiw	r24, 0x01	; 1
     d9e:	0e 94 97 0a 	call	0x152e	; 0x152e <atoi>
				if (newVal < maxMinus || newVal > maxPlus) {
     da2:	8d 15       	cp	r24, r13
     da4:	14 f0       	brlt	.+4      	; 0xdaa <_ZN12usartHelpers18ChangeNullstellungEv+0x168>
     da6:	c8 16       	cp	r12, r24
     da8:	dc f4       	brge	.+54     	; 0xde0 <_ZN12usartHelpers18ChangeNullstellungEv+0x19e>
					uart.write((char*)"Value must be between \0"); uart.write((int16_t)maxMinus);  uart.write((char*)" and \0"); uart.write((int16_t)maxPlus, true);
     daa:	40 e0       	ldi	r20, 0x00	; 0
     dac:	62 ed       	ldi	r22, 0xD2	; 210
     dae:	73 e0       	ldi	r23, 0x03	; 3
     db0:	8e e6       	ldi	r24, 0x6E	; 110
     db2:	97 e0       	ldi	r25, 0x07	; 7
     db4:	0e 94 3e 03 	call	0x67c	; 0x67c <_ZN6myUart5writeEPcb>
     db8:	40 e0       	ldi	r20, 0x00	; 0
     dba:	b7 01       	movw	r22, r14
     dbc:	8e e6       	ldi	r24, 0x6E	; 110
     dbe:	97 e0       	ldi	r25, 0x07	; 7
     dc0:	0e 94 5c 03 	call	0x6b8	; 0x6b8 <_ZN6myUart5writeEib>
     dc4:	40 e0       	ldi	r20, 0x00	; 0
     dc6:	60 e9       	ldi	r22, 0x90	; 144
     dc8:	73 e0       	ldi	r23, 0x03	; 3
     dca:	8e e6       	ldi	r24, 0x6E	; 110
     dcc:	97 e0       	ldi	r25, 0x07	; 7
     dce:	0e 94 3e 03 	call	0x67c	; 0x67c <_ZN6myUart5writeEPcb>
     dd2:	41 e0       	ldi	r20, 0x01	; 1
     dd4:	b8 01       	movw	r22, r16
     dd6:	8e e6       	ldi	r24, 0x6E	; 110
     dd8:	97 e0       	ldi	r25, 0x07	; 7
     dda:	0e 94 5c 03 	call	0x6b8	; 0x6b8 <_ZN6myUart5writeEib>
     dde:	0c c0       	rjmp	.+24     	; 0xdf8 <_ZN12usartHelpers18ChangeNullstellungEv+0x1b6>
					} else {
					initValues.setNullStellung(newVal);
     de0:	40 e0       	ldi	r20, 0x00	; 0
     de2:	68 2f       	mov	r22, r24
     de4:	80 e7       	ldi	r24, 0x70	; 112
     de6:	97 e0       	ldi	r25, 0x07	; 7
     de8:	0e 94 1c 05 	call	0xa38	; 0xa38 <_ZN11ServoEEPROM15setNullStellungEab>
     dec:	05 c0       	rjmp	.+10     	; 0xdf8 <_ZN12usartHelpers18ChangeNullstellungEv+0x1b6>
				}
			} // if (dev[lauf] == 'q')
			uart.LfCr();
     dee:	8e e6       	ldi	r24, 0x6E	; 110
     df0:	97 e0       	ldi	r25, 0x07	; 7
     df2:	0e 94 f7 02 	call	0x5ee	; 0x5ee <_ZN6myUart4LfCrEv>
		} while (!exit);
	}
     df6:	05 c0       	rjmp	.+10     	; 0xe02 <_ZN12usartHelpers18ChangeNullstellungEv+0x1c0>
					uart.write((char*)"Value must be between \0"); uart.write((int16_t)maxMinus);  uart.write((char*)" and \0"); uart.write((int16_t)maxPlus, true);
					} else {
					initValues.setNullStellung(newVal);
				}
			} // if (dev[lauf] == 'q')
			uart.LfCr();
     df8:	8e e6       	ldi	r24, 0x6E	; 110
     dfa:	97 e0       	ldi	r25, 0x07	; 7
     dfc:	0e 94 f7 02 	call	0x5ee	; 0x5ee <_ZN6myUart4LfCrEv>
     e00:	53 cf       	rjmp	.-346    	; 0xca8 <_ZN12usartHelpers18ChangeNullstellungEv+0x66>
		} while (!exit);
	}
     e02:	e9 96       	adiw	r28, 0x39	; 57
     e04:	0f b6       	in	r0, 0x3f	; 63
     e06:	f8 94       	cli
     e08:	de bf       	out	0x3e, r29	; 62
     e0a:	0f be       	out	0x3f, r0	; 63
     e0c:	cd bf       	out	0x3d, r28	; 61
     e0e:	df 91       	pop	r29
     e10:	cf 91       	pop	r28
     e12:	1f 91       	pop	r17
     e14:	0f 91       	pop	r16
     e16:	ff 90       	pop	r15
     e18:	ef 90       	pop	r14
     e1a:	df 90       	pop	r13
     e1c:	cf 90       	pop	r12
     e1e:	08 95       	ret

00000e20 <_ZN12usartHelpers16ChangeAngleRangeEv>:
	 * \brief 
	 *  uart submenu for changing the angle range of a Servo
	 * 
	 * \return void
	 */
	void ChangeAngleRange() {
     e20:	ff 92       	push	r15
     e22:	0f 93       	push	r16
     e24:	1f 93       	push	r17
     e26:	cf 93       	push	r28
     e28:	df 93       	push	r29
     e2a:	cd b7       	in	r28, 0x3d	; 61
     e2c:	de b7       	in	r29, 0x3e	; 62
     e2e:	e9 97       	sbiw	r28, 0x39	; 57
     e30:	0f b6       	in	r0, 0x3f	; 63
     e32:	f8 94       	cli
     e34:	de bf       	out	0x3e, r29	; 62
     e36:	0f be       	out	0x3f, r0	; 63
     e38:	cd bf       	out	0x3d, r28	; 61
		char dev[4];
		bool exit;
		uint8_t maxRange = 0;
		if (initValues.getInitValues(false).SNullStellung < 0) {
     e3a:	40 e0       	ldi	r20, 0x00	; 0
     e3c:	60 e7       	ldi	r22, 0x70	; 112
     e3e:	77 e0       	ldi	r23, 0x07	; 7
     e40:	ce 01       	movw	r24, r28
     e42:	05 96       	adiw	r24, 0x05	; 5
     e44:	0e 94 d8 04 	call	0x9b0	; 0x9b0 <_ZN11ServoEEPROM13getInitValuesEb>
     e48:	8e a9       	ldd	r24, Y+54	; 0x36
     e4a:	88 23       	and	r24, r24
     e4c:	74 f4       	brge	.+28     	; 0xe6a <_ZN12usartHelpers16ChangeAngleRangeEv+0x4a>
			maxRange = (uint8_t)(180 + initValues.getInitValues(false).SNullStellung);
     e4e:	40 e0       	ldi	r20, 0x00	; 0
     e50:	60 e7       	ldi	r22, 0x70	; 112
     e52:	77 e0       	ldi	r23, 0x07	; 7
     e54:	ce 01       	movw	r24, r28
     e56:	05 96       	adiw	r24, 0x05	; 5
     e58:	0e 94 d8 04 	call	0x9b0	; 0x9b0 <_ZN11ServoEEPROM13getInitValuesEb>
     e5c:	8e a9       	ldd	r24, Y+54	; 0x36
     e5e:	0f 2e       	mov	r0, r31
     e60:	f4 eb       	ldi	r31, 0xB4	; 180
     e62:	ff 2e       	mov	r15, r31
     e64:	f0 2d       	mov	r31, r0
     e66:	f8 0e       	add	r15, r24
     e68:	0b c0       	rjmp	.+22     	; 0xe80 <_ZN12usartHelpers16ChangeAngleRangeEv+0x60>
		} else	{
			maxRange = (uint8_t)(180 - initValues.getInitValues(false).SNullStellung);
     e6a:	40 e0       	ldi	r20, 0x00	; 0
     e6c:	60 e7       	ldi	r22, 0x70	; 112
     e6e:	77 e0       	ldi	r23, 0x07	; 7
     e70:	ce 01       	movw	r24, r28
     e72:	05 96       	adiw	r24, 0x05	; 5
     e74:	0e 94 d8 04 	call	0x9b0	; 0x9b0 <_ZN11ServoEEPROM13getInitValuesEb>
     e78:	9e a9       	ldd	r25, Y+54	; 0x36
     e7a:	84 eb       	ldi	r24, 0xB4	; 180
     e7c:	f8 2e       	mov	r15, r24
     e7e:	f9 1a       	sub	r15, r25
			exit = false;
			uart.write((char*)"Servo Multiplier --> Change Anglerange\0", true);
			uart.LfCr();
			uart.write((char*)"Anglerange in degree up to 180 degree\0", true);
			uart.write((char*)"If zeroing is not 0 the range must be below 180! \0", true);
			uart.write((char*)"Therefore the max. range is \0"); uart.write((uint16_t) maxRange); uart.write((char*)" degree\0", true);
     e80:	0f 2d       	mov	r16, r15
     e82:	10 e0       	ldi	r17, 0x00	; 0
			maxRange = (uint8_t)(180 + initValues.getInitValues(false).SNullStellung);
		} else	{
			maxRange = (uint8_t)(180 - initValues.getInitValues(false).SNullStellung);
		}
		do {
			uart.cls();
     e84:	8e e6       	ldi	r24, 0x6E	; 110
     e86:	97 e0       	ldi	r25, 0x07	; 7
     e88:	0e 94 16 03 	call	0x62c	; 0x62c <_ZN6myUart3clsEv>
			exit = false;
			uart.write((char*)"Servo Multiplier --> Change Anglerange\0", true);
     e8c:	41 e0       	ldi	r20, 0x01	; 1
     e8e:	6a ee       	ldi	r22, 0xEA	; 234
     e90:	73 e0       	ldi	r23, 0x03	; 3
     e92:	8e e6       	ldi	r24, 0x6E	; 110
     e94:	97 e0       	ldi	r25, 0x07	; 7
     e96:	0e 94 3e 03 	call	0x67c	; 0x67c <_ZN6myUart5writeEPcb>
			uart.LfCr();
     e9a:	8e e6       	ldi	r24, 0x6E	; 110
     e9c:	97 e0       	ldi	r25, 0x07	; 7
     e9e:	0e 94 f7 02 	call	0x5ee	; 0x5ee <_ZN6myUart4LfCrEv>
			uart.write((char*)"Anglerange in degree up to 180 degree\0", true);
     ea2:	41 e0       	ldi	r20, 0x01	; 1
     ea4:	62 e1       	ldi	r22, 0x12	; 18
     ea6:	74 e0       	ldi	r23, 0x04	; 4
     ea8:	8e e6       	ldi	r24, 0x6E	; 110
     eaa:	97 e0       	ldi	r25, 0x07	; 7
     eac:	0e 94 3e 03 	call	0x67c	; 0x67c <_ZN6myUart5writeEPcb>
			uart.write((char*)"If zeroing is not 0 the range must be below 180! \0", true);
     eb0:	41 e0       	ldi	r20, 0x01	; 1
     eb2:	69 e3       	ldi	r22, 0x39	; 57
     eb4:	74 e0       	ldi	r23, 0x04	; 4
     eb6:	8e e6       	ldi	r24, 0x6E	; 110
     eb8:	97 e0       	ldi	r25, 0x07	; 7
     eba:	0e 94 3e 03 	call	0x67c	; 0x67c <_ZN6myUart5writeEPcb>
			uart.write((char*)"Therefore the max. range is \0"); uart.write((uint16_t) maxRange); uart.write((char*)" degree\0", true);
     ebe:	40 e0       	ldi	r20, 0x00	; 0
     ec0:	6c e6       	ldi	r22, 0x6C	; 108
     ec2:	74 e0       	ldi	r23, 0x04	; 4
     ec4:	8e e6       	ldi	r24, 0x6E	; 110
     ec6:	97 e0       	ldi	r25, 0x07	; 7
     ec8:	0e 94 3e 03 	call	0x67c	; 0x67c <_ZN6myUart5writeEPcb>
     ecc:	40 e0       	ldi	r20, 0x00	; 0
     ece:	b8 01       	movw	r22, r16
     ed0:	8e e6       	ldi	r24, 0x6E	; 110
     ed2:	97 e0       	ldi	r25, 0x07	; 7
     ed4:	0e 94 85 03 	call	0x70a	; 0x70a <_ZN6myUart5writeEjb>
     ed8:	41 e0       	ldi	r20, 0x01	; 1
     eda:	69 e6       	ldi	r22, 0x69	; 105
     edc:	73 e0       	ldi	r23, 0x03	; 3
     ede:	8e e6       	ldi	r24, 0x6E	; 110
     ee0:	97 e0       	ldi	r25, 0x07	; 7
     ee2:	0e 94 3e 03 	call	0x67c	; 0x67c <_ZN6myUart5writeEPcb>
			uart.write((char*)"The minimum Range is 2 and the value is an integer value! \0", true);
     ee6:	41 e0       	ldi	r20, 0x01	; 1
     ee8:	6a e8       	ldi	r22, 0x8A	; 138
     eea:	74 e0       	ldi	r23, 0x04	; 4
     eec:	8e e6       	ldi	r24, 0x6E	; 110
     eee:	97 e0       	ldi	r25, 0x07	; 7
     ef0:	0e 94 3e 03 	call	0x67c	; 0x67c <_ZN6myUart5writeEPcb>
			uart.LfCr();
     ef4:	8e e6       	ldi	r24, 0x6E	; 110
     ef6:	97 e0       	ldi	r25, 0x07	; 7
     ef8:	0e 94 f7 02 	call	0x5ee	; 0x5ee <_ZN6myUart4LfCrEv>
			uart.write((char*)"Current range: \0"); uart.write((uint16_t)initValues.getInitValues().AngleRange); uart.write((char*)" degree\0", true);
     efc:	40 e0       	ldi	r20, 0x00	; 0
     efe:	66 ec       	ldi	r22, 0xC6	; 198
     f00:	74 e0       	ldi	r23, 0x04	; 4
     f02:	8e e6       	ldi	r24, 0x6E	; 110
     f04:	97 e0       	ldi	r25, 0x07	; 7
     f06:	0e 94 3e 03 	call	0x67c	; 0x67c <_ZN6myUart5writeEPcb>
     f0a:	40 e0       	ldi	r20, 0x00	; 0
     f0c:	60 e7       	ldi	r22, 0x70	; 112
     f0e:	77 e0       	ldi	r23, 0x07	; 7
     f10:	ce 01       	movw	r24, r28
     f12:	05 96       	adiw	r24, 0x05	; 5
     f14:	0e 94 d8 04 	call	0x9b0	; 0x9b0 <_ZN11ServoEEPROM13getInitValuesEb>
     f18:	6f a9       	ldd	r22, Y+55	; 0x37
     f1a:	70 e0       	ldi	r23, 0x00	; 0
     f1c:	40 e0       	ldi	r20, 0x00	; 0
     f1e:	8e e6       	ldi	r24, 0x6E	; 110
     f20:	97 e0       	ldi	r25, 0x07	; 7
     f22:	0e 94 85 03 	call	0x70a	; 0x70a <_ZN6myUart5writeEjb>
     f26:	41 e0       	ldi	r20, 0x01	; 1
     f28:	69 e6       	ldi	r22, 0x69	; 105
     f2a:	73 e0       	ldi	r23, 0x03	; 3
     f2c:	8e e6       	ldi	r24, 0x6E	; 110
     f2e:	97 e0       	ldi	r25, 0x07	; 7
     f30:	0e 94 3e 03 	call	0x67c	; 0x67c <_ZN6myUart5writeEPcb>
			uart.write((char*)"Enter new Range or press 'q' for quit without changes: \0", true);
     f34:	41 e0       	ldi	r20, 0x01	; 1
     f36:	67 ed       	ldi	r22, 0xD7	; 215
     f38:	74 e0       	ldi	r23, 0x04	; 4
     f3a:	8e e6       	ldi	r24, 0x6E	; 110
     f3c:	97 e0       	ldi	r25, 0x07	; 7
     f3e:	0e 94 3e 03 	call	0x67c	; 0x67c <_ZN6myUart5writeEPcb>
			uart.write((char*)"New range: \0");
     f42:	40 e0       	ldi	r20, 0x00	; 0
     f44:	60 e1       	ldi	r22, 0x10	; 16
     f46:	75 e0       	ldi	r23, 0x05	; 5
     f48:	8e e6       	ldi	r24, 0x6E	; 110
     f4a:	97 e0       	ldi	r25, 0x07	; 7
     f4c:	0e 94 3e 03 	call	0x67c	; 0x67c <_ZN6myUart5writeEPcb>
			uart.read((unsigned char*)dev, 4);
     f50:	44 e0       	ldi	r20, 0x04	; 4
     f52:	be 01       	movw	r22, r28
     f54:	6f 5f       	subi	r22, 0xFF	; 255
     f56:	7f 4f       	sbci	r23, 0xFF	; 255
     f58:	8e e6       	ldi	r24, 0x6E	; 110
     f5a:	97 e0       	ldi	r25, 0x07	; 7
     f5c:	0e 94 ae 02 	call	0x55c	; 0x55c <_ZN6myUart4readEPhh>
			uint8_t lauf = 0;
			if (dev[lauf] == 'q') {
     f60:	89 81       	ldd	r24, Y+1	; 0x01
     f62:	81 37       	cpi	r24, 0x71	; 113
     f64:	e9 f0       	breq	.+58     	; 0xfa0 <_ZN12usartHelpers16ChangeAngleRangeEv+0x180>
				exit = true;
				} else {
				uint8_t newVal = (uint8_t)atoi(dev);
     f66:	ce 01       	movw	r24, r28
     f68:	01 96       	adiw	r24, 0x01	; 1
     f6a:	0e 94 97 0a 	call	0x152e	; 0x152e <atoi>
				if (newVal < 2 || newVal > maxRange) {
     f6e:	82 30       	cpi	r24, 0x02	; 2
     f70:	10 f0       	brcs	.+4      	; 0xf76 <_ZN12usartHelpers16ChangeAngleRangeEv+0x156>
     f72:	f8 16       	cp	r15, r24
     f74:	70 f4       	brcc	.+28     	; 0xf92 <_ZN12usartHelpers16ChangeAngleRangeEv+0x172>
					uart.write((char*)"Value must be an integer between 2 and \0", true); uart.write((uint16_t)maxRange, true); 
     f76:	41 e0       	ldi	r20, 0x01	; 1
     f78:	6d e1       	ldi	r22, 0x1D	; 29
     f7a:	75 e0       	ldi	r23, 0x05	; 5
     f7c:	8e e6       	ldi	r24, 0x6E	; 110
     f7e:	97 e0       	ldi	r25, 0x07	; 7
     f80:	0e 94 3e 03 	call	0x67c	; 0x67c <_ZN6myUart5writeEPcb>
     f84:	41 e0       	ldi	r20, 0x01	; 1
     f86:	b8 01       	movw	r22, r16
     f88:	8e e6       	ldi	r24, 0x6E	; 110
     f8a:	97 e0       	ldi	r25, 0x07	; 7
     f8c:	0e 94 85 03 	call	0x70a	; 0x70a <_ZN6myUart5writeEjb>
     f90:	0c c0       	rjmp	.+24     	; 0xfaa <_ZN12usartHelpers16ChangeAngleRangeEv+0x18a>
				} else {
					initValues.setAngleRange(newVal);
     f92:	40 e0       	ldi	r20, 0x00	; 0
     f94:	68 2f       	mov	r22, r24
     f96:	80 e7       	ldi	r24, 0x70	; 112
     f98:	97 e0       	ldi	r25, 0x07	; 7
     f9a:	0e 94 22 05 	call	0xa44	; 0xa44 <_ZN11ServoEEPROM13setAngleRangeEhb>
     f9e:	05 c0       	rjmp	.+10     	; 0xfaa <_ZN12usartHelpers16ChangeAngleRangeEv+0x18a>
				}
			} // if (dev[lauf] == 'q')
			uart.LfCr();
     fa0:	8e e6       	ldi	r24, 0x6E	; 110
     fa2:	97 e0       	ldi	r25, 0x07	; 7
     fa4:	0e 94 f7 02 	call	0x5ee	; 0x5ee <_ZN6myUart4LfCrEv>
		} while (!exit);	
	}
     fa8:	05 c0       	rjmp	.+10     	; 0xfb4 <_ZN12usartHelpers16ChangeAngleRangeEv+0x194>
					uart.write((char*)"Value must be an integer between 2 and \0", true); uart.write((uint16_t)maxRange, true); 
				} else {
					initValues.setAngleRange(newVal);
				}
			} // if (dev[lauf] == 'q')
			uart.LfCr();
     faa:	8e e6       	ldi	r24, 0x6E	; 110
     fac:	97 e0       	ldi	r25, 0x07	; 7
     fae:	0e 94 f7 02 	call	0x5ee	; 0x5ee <_ZN6myUart4LfCrEv>
     fb2:	68 cf       	rjmp	.-304    	; 0xe84 <_ZN12usartHelpers16ChangeAngleRangeEv+0x64>
		} while (!exit);	
	}
     fb4:	e9 96       	adiw	r28, 0x39	; 57
     fb6:	0f b6       	in	r0, 0x3f	; 63
     fb8:	f8 94       	cli
     fba:	de bf       	out	0x3e, r29	; 62
     fbc:	0f be       	out	0x3f, r0	; 63
     fbe:	cd bf       	out	0x3d, r28	; 61
     fc0:	df 91       	pop	r29
     fc2:	cf 91       	pop	r28
     fc4:	1f 91       	pop	r17
     fc6:	0f 91       	pop	r16
     fc8:	ff 90       	pop	r15
     fca:	08 95       	ret

00000fcc <_ZN12usartHelpers14ChangePWMDelayEv>:
	 * \brief 
	 *  Uart submenu for changing the PWM delaytimer
	 * 
	 * \return void
	 */
	void ChangePWMDelay() {
     fcc:	cf 93       	push	r28
     fce:	df 93       	push	r29
     fd0:	cd b7       	in	r28, 0x3d	; 61
     fd2:	de b7       	in	r29, 0x3e	; 62
     fd4:	eb 97       	sbiw	r28, 0x3b	; 59
     fd6:	0f b6       	in	r0, 0x3f	; 63
     fd8:	f8 94       	cli
     fda:	de bf       	out	0x3e, r29	; 62
     fdc:	0f be       	out	0x3f, r0	; 63
     fde:	cd bf       	out	0x3d, r28	; 61
		const uint8_t length = 6;
		char dev[length];
		uart.cls();
     fe0:	8e e6       	ldi	r24, 0x6E	; 110
     fe2:	97 e0       	ldi	r25, 0x07	; 7
     fe4:	0e 94 16 03 	call	0x62c	; 0x62c <_ZN6myUart3clsEv>
		bool exit = false;
		do {
			uart.write((char*)"Servo Multiplier --> Change PWM delay\0", true);
     fe8:	41 e0       	ldi	r20, 0x01	; 1
     fea:	66 e4       	ldi	r22, 0x46	; 70
     fec:	75 e0       	ldi	r23, 0x05	; 5
     fee:	8e e6       	ldi	r24, 0x6E	; 110
     ff0:	97 e0       	ldi	r25, 0x07	; 7
     ff2:	0e 94 3e 03 	call	0x67c	; 0x67c <_ZN6myUart5writeEPcb>
			uart.LfCr();
     ff6:	8e e6       	ldi	r24, 0x6E	; 110
     ff8:	97 e0       	ldi	r25, 0x07	; 7
     ffa:	0e 94 f7 02 	call	0x5ee	; 0x5ee <_ZN6myUart4LfCrEv>
			uart.write((char*)"PWM delay sets the time [ms] the generated PWM lasts after \0", true);
     ffe:	41 e0       	ldi	r20, 0x01	; 1
    1000:	6d e6       	ldi	r22, 0x6D	; 109
    1002:	75 e0       	ldi	r23, 0x05	; 5
    1004:	8e e6       	ldi	r24, 0x6E	; 110
    1006:	97 e0       	ldi	r25, 0x07	; 7
    1008:	0e 94 3e 03 	call	0x67c	; 0x67c <_ZN6myUart5writeEPcb>
			uart.write((char*)"changing the Servo output PORT. The min Value is 100 for 100ms! \0", true);
    100c:	41 e0       	ldi	r20, 0x01	; 1
    100e:	6a ea       	ldi	r22, 0xAA	; 170
    1010:	75 e0       	ldi	r23, 0x05	; 5
    1012:	8e e6       	ldi	r24, 0x6E	; 110
    1014:	97 e0       	ldi	r25, 0x07	; 7
    1016:	0e 94 3e 03 	call	0x67c	; 0x67c <_ZN6myUart5writeEPcb>
			uart.LfCr();
    101a:	8e e6       	ldi	r24, 0x6E	; 110
    101c:	97 e0       	ldi	r25, 0x07	; 7
    101e:	0e 94 f7 02 	call	0x5ee	; 0x5ee <_ZN6myUart4LfCrEv>
			uart.write((char*)"Current delay: \0"); uart.write((uint16_t)initValues.getInitValues().PWMDelay); uart.write((char*)"ms\0", true);
    1022:	40 e0       	ldi	r20, 0x00	; 0
    1024:	6c ee       	ldi	r22, 0xEC	; 236
    1026:	75 e0       	ldi	r23, 0x05	; 5
    1028:	8e e6       	ldi	r24, 0x6E	; 110
    102a:	97 e0       	ldi	r25, 0x07	; 7
    102c:	0e 94 3e 03 	call	0x67c	; 0x67c <_ZN6myUart5writeEPcb>
    1030:	40 e0       	ldi	r20, 0x00	; 0
    1032:	60 e7       	ldi	r22, 0x70	; 112
    1034:	77 e0       	ldi	r23, 0x07	; 7
    1036:	ce 01       	movw	r24, r28
    1038:	07 96       	adiw	r24, 0x07	; 7
    103a:	0e 94 d8 04 	call	0x9b0	; 0x9b0 <_ZN11ServoEEPROM13getInitValuesEb>
    103e:	6a ad       	ldd	r22, Y+58	; 0x3a
    1040:	7b ad       	ldd	r23, Y+59	; 0x3b
    1042:	40 e0       	ldi	r20, 0x00	; 0
    1044:	8e e6       	ldi	r24, 0x6E	; 110
    1046:	97 e0       	ldi	r25, 0x07	; 7
    1048:	0e 94 85 03 	call	0x70a	; 0x70a <_ZN6myUart5writeEjb>
    104c:	41 e0       	ldi	r20, 0x01	; 1
    104e:	6d ef       	ldi	r22, 0xFD	; 253
    1050:	75 e0       	ldi	r23, 0x05	; 5
    1052:	8e e6       	ldi	r24, 0x6E	; 110
    1054:	97 e0       	ldi	r25, 0x07	; 7
    1056:	0e 94 3e 03 	call	0x67c	; 0x67c <_ZN6myUart5writeEPcb>
			uart.write((char*)"Enter new PWM delay or press 'q' for quit without changes! \0", true);
    105a:	41 e0       	ldi	r20, 0x01	; 1
    105c:	61 e0       	ldi	r22, 0x01	; 1
    105e:	76 e0       	ldi	r23, 0x06	; 6
    1060:	8e e6       	ldi	r24, 0x6E	; 110
    1062:	97 e0       	ldi	r25, 0x07	; 7
    1064:	0e 94 3e 03 	call	0x67c	; 0x67c <_ZN6myUart5writeEPcb>
			uart.write((char*)"New delay: \0");
    1068:	40 e0       	ldi	r20, 0x00	; 0
    106a:	6e e3       	ldi	r22, 0x3E	; 62
    106c:	76 e0       	ldi	r23, 0x06	; 6
    106e:	8e e6       	ldi	r24, 0x6E	; 110
    1070:	97 e0       	ldi	r25, 0x07	; 7
    1072:	0e 94 3e 03 	call	0x67c	; 0x67c <_ZN6myUart5writeEPcb>
			uart.read((unsigned char*)dev, length);
    1076:	46 e0       	ldi	r20, 0x06	; 6
    1078:	be 01       	movw	r22, r28
    107a:	6f 5f       	subi	r22, 0xFF	; 255
    107c:	7f 4f       	sbci	r23, 0xFF	; 255
    107e:	8e e6       	ldi	r24, 0x6E	; 110
    1080:	97 e0       	ldi	r25, 0x07	; 7
    1082:	0e 94 ae 02 	call	0x55c	; 0x55c <_ZN6myUart4readEPhh>
			uint8_t lauf = 0;
			if (dev[lauf] == 'q') {
    1086:	89 81       	ldd	r24, Y+1	; 0x01
    1088:	81 37       	cpi	r24, 0x71	; 113
    108a:	d1 f0       	breq	.+52     	; 0x10c0 <_ZN12usartHelpers14ChangePWMDelayEv+0xf4>
				exit = true;
			} else {
				uint16_t newVal = (uint16_t)atoi(dev);
    108c:	ce 01       	movw	r24, r28
    108e:	01 96       	adiw	r24, 0x01	; 1
    1090:	0e 94 97 0a 	call	0x152e	; 0x152e <atoi>
				if (newVal < 100 ) {
    1094:	84 36       	cpi	r24, 0x64	; 100
    1096:	91 05       	cpc	r25, r1
    1098:	40 f4       	brcc	.+16     	; 0x10aa <_ZN12usartHelpers14ChangePWMDelayEv+0xde>
					uart.write((char*)"Value must be an integer between 100 and 65535\0", true); 
    109a:	41 e0       	ldi	r20, 0x01	; 1
    109c:	6b e4       	ldi	r22, 0x4B	; 75
    109e:	76 e0       	ldi	r23, 0x06	; 6
    10a0:	8e e6       	ldi	r24, 0x6E	; 110
    10a2:	97 e0       	ldi	r25, 0x07	; 7
    10a4:	0e 94 3e 03 	call	0x67c	; 0x67c <_ZN6myUart5writeEPcb>
    10a8:	06 c0       	rjmp	.+12     	; 0x10b6 <_ZN12usartHelpers14ChangePWMDelayEv+0xea>
				} else {
					initValues.setPWMDelay(newVal);
    10aa:	40 e0       	ldi	r20, 0x00	; 0
    10ac:	bc 01       	movw	r22, r24
    10ae:	80 e7       	ldi	r24, 0x70	; 112
    10b0:	97 e0       	ldi	r25, 0x07	; 7
    10b2:	0e 94 28 05 	call	0xa50	; 0xa50 <_ZN11ServoEEPROM11setPWMDelayEjb>
				}
			} // if (dev[lauf] == 'q')
			uart.LfCr();
    10b6:	8e e6       	ldi	r24, 0x6E	; 110
    10b8:	97 e0       	ldi	r25, 0x07	; 7
    10ba:	0e 94 f7 02 	call	0x5ee	; 0x5ee <_ZN6myUart4LfCrEv>
    10be:	94 cf       	rjmp	.-216    	; 0xfe8 <_ZN12usartHelpers14ChangePWMDelayEv+0x1c>
    10c0:	8e e6       	ldi	r24, 0x6E	; 110
    10c2:	97 e0       	ldi	r25, 0x07	; 7
    10c4:	0e 94 f7 02 	call	0x5ee	; 0x5ee <_ZN6myUart4LfCrEv>
		} while (!exit);
	}
    10c8:	eb 96       	adiw	r28, 0x3b	; 59
    10ca:	0f b6       	in	r0, 0x3f	; 63
    10cc:	f8 94       	cli
    10ce:	de bf       	out	0x3e, r29	; 62
    10d0:	0f be       	out	0x3f, r0	; 63
    10d2:	cd bf       	out	0x3d, r28	; 61
    10d4:	df 91       	pop	r29
    10d6:	cf 91       	pop	r28
    10d8:	08 95       	ret

000010da <_ZN12usartHelpers8MainMenuEv>:
	  * \brief 
	  *  shows the Startup Menu on uart
	  * 
	  * \return void
	  */
	 void MainMenu() {
    10da:	4f 92       	push	r4
    10dc:	5f 92       	push	r5
    10de:	7f 92       	push	r7
    10e0:	8f 92       	push	r8
    10e2:	9f 92       	push	r9
    10e4:	af 92       	push	r10
    10e6:	bf 92       	push	r11
    10e8:	cf 92       	push	r12
    10ea:	df 92       	push	r13
    10ec:	ef 92       	push	r14
    10ee:	ff 92       	push	r15
    10f0:	1f 93       	push	r17
    10f2:	cf 93       	push	r28
    10f4:	df 93       	push	r29
    10f6:	cd b7       	in	r28, 0x3d	; 61
    10f8:	de b7       	in	r29, 0x3e	; 62
    10fa:	cf 59       	subi	r28, 0x9F	; 159
    10fc:	d1 09       	sbc	r29, r1
    10fe:	0f b6       	in	r0, 0x3f	; 63
    1100:	f8 94       	cli
    1102:	de bf       	out	0x3e, r29	; 62
    1104:	0f be       	out	0x3f, r0	; 63
    1106:	cd bf       	out	0x3d, r28	; 61

		EEPROM_initValues actv = initValues.getInitValues(true);
    1108:	41 e0       	ldi	r20, 0x01	; 1
    110a:	60 e7       	ldi	r22, 0x70	; 112
    110c:	77 e0       	ldi	r23, 0x07	; 7
    110e:	ce 01       	movw	r24, r28
    1110:	01 96       	adiw	r24, 0x01	; 1
    1112:	0e 94 d8 04 	call	0x9b0	; 0x9b0 <_ZN11ServoEEPROM13getInitValuesEb>
		while (x != 'q')  {
			uart.cls();
			uart.write((char*)"ServoPortmultiplier Configuration Menu\0", true);
			uart.LfCr();
			uart.write((char*)"SerienNr: \0"); uart.write(initValues.getInitValues().SerialNr, true); 
			uart.write((char*)"Author:   \0"); uart.write((char*)initValues.getInitValues().author, true); 
    1116:	0f 2e       	mov	r0, r31
    1118:	fb e6       	ldi	r31, 0x6B	; 107
    111a:	cf 2e       	mov	r12, r31
    111c:	d1 2c       	mov	r13, r1
    111e:	f0 2d       	mov	r31, r0
    1120:	cc 0e       	add	r12, r28
    1122:	dd 1e       	adc	r13, r29
    1124:	82 e0       	ldi	r24, 0x02	; 2
    1126:	c8 0e       	add	r12, r24
    1128:	d1 1c       	adc	r13, r1
			uart.write((char*)"Company:  \0"); uart.write((char*)initValues.getInitValues().company, true); 
    112a:	0f 2e       	mov	r0, r31
    112c:	fb e6       	ldi	r31, 0x6B	; 107
    112e:	ef 2e       	mov	r14, r31
    1130:	f1 2c       	mov	r15, r1
    1132:	f0 2d       	mov	r31, r0
    1134:	ec 0e       	add	r14, r28
    1136:	fd 1e       	adc	r15, r29
    1138:	96 e1       	ldi	r25, 0x16	; 22
    113a:	e9 0e       	add	r14, r25
    113c:	f1 1c       	adc	r15, r1
			uart.write((char*)"Version:  \0"); uart.write(initValues.getInitValues().version, true);
    113e:	0f 2e       	mov	r0, r31
    1140:	fb e6       	ldi	r31, 0x6B	; 107
    1142:	4f 2e       	mov	r4, r31
    1144:	51 2c       	mov	r5, r1
    1146:	f0 2d       	mov	r31, r0
    1148:	4c 0e       	add	r4, r28
    114a:	5d 1e       	adc	r5, r29
    114c:	8a e2       	ldi	r24, 0x2A	; 42
    114e:	48 0e       	add	r4, r24
    1150:	51 1c       	adc	r5, r1
    1152:	03 c0       	rjmp	.+6      	; 0x115a <_ZN12usartHelpers8MainMenuEv+0x80>
	 void MainMenu() {

		EEPROM_initValues actv = initValues.getInitValues(true);
		bool changesMade = false;
		unsigned char x = '0';
		while (x != 'q')  {
    1154:	81 37       	cpi	r24, 0x71	; 113
    1156:	09 f4       	brne	.+2      	; 0x115a <_ZN12usartHelpers8MainMenuEv+0x80>
    1158:	ce c1       	rjmp	.+924    	; 0x14f6 <_ZN12usartHelpers8MainMenuEv+0x41c>
			uart.cls();
    115a:	8e e6       	ldi	r24, 0x6E	; 110
    115c:	97 e0       	ldi	r25, 0x07	; 7
    115e:	0e 94 16 03 	call	0x62c	; 0x62c <_ZN6myUart3clsEv>
			uart.write((char*)"ServoPortmultiplier Configuration Menu\0", true);
    1162:	41 e0       	ldi	r20, 0x01	; 1
    1164:	6b e7       	ldi	r22, 0x7B	; 123
    1166:	76 e0       	ldi	r23, 0x06	; 6
    1168:	8e e6       	ldi	r24, 0x6E	; 110
    116a:	97 e0       	ldi	r25, 0x07	; 7
    116c:	0e 94 3e 03 	call	0x67c	; 0x67c <_ZN6myUart5writeEPcb>
			uart.LfCr();
    1170:	8e e6       	ldi	r24, 0x6E	; 110
    1172:	97 e0       	ldi	r25, 0x07	; 7
    1174:	0e 94 f7 02 	call	0x5ee	; 0x5ee <_ZN6myUart4LfCrEv>
			uart.write((char*)"SerienNr: \0"); uart.write(initValues.getInitValues().SerialNr, true); 
    1178:	40 e0       	ldi	r20, 0x00	; 0
    117a:	63 ea       	ldi	r22, 0xA3	; 163
    117c:	76 e0       	ldi	r23, 0x06	; 6
    117e:	8e e6       	ldi	r24, 0x6E	; 110
    1180:	97 e0       	ldi	r25, 0x07	; 7
    1182:	0e 94 3e 03 	call	0x67c	; 0x67c <_ZN6myUart5writeEPcb>
    1186:	40 e0       	ldi	r20, 0x00	; 0
    1188:	60 e7       	ldi	r22, 0x70	; 112
    118a:	77 e0       	ldi	r23, 0x07	; 7
    118c:	ce 01       	movw	r24, r28
    118e:	85 59       	subi	r24, 0x95	; 149
    1190:	9f 4f       	sbci	r25, 0xFF	; 255
    1192:	0e 94 d8 04 	call	0x9b0	; 0x9b0 <_ZN11ServoEEPROM13getInitValuesEb>
    1196:	ad 96       	adiw	r28, 0x2d	; 45
    1198:	6e ad       	ldd	r22, Y+62	; 0x3e
    119a:	7f ad       	ldd	r23, Y+63	; 0x3f
    119c:	ad 97       	sbiw	r28, 0x2d	; 45
    119e:	41 e0       	ldi	r20, 0x01	; 1
    11a0:	8e e6       	ldi	r24, 0x6E	; 110
    11a2:	97 e0       	ldi	r25, 0x07	; 7
    11a4:	0e 94 85 03 	call	0x70a	; 0x70a <_ZN6myUart5writeEjb>
			uart.write((char*)"Author:   \0"); uart.write((char*)initValues.getInitValues().author, true); 
    11a8:	40 e0       	ldi	r20, 0x00	; 0
    11aa:	6f ea       	ldi	r22, 0xAF	; 175
    11ac:	76 e0       	ldi	r23, 0x06	; 6
    11ae:	8e e6       	ldi	r24, 0x6E	; 110
    11b0:	97 e0       	ldi	r25, 0x07	; 7
    11b2:	0e 94 3e 03 	call	0x67c	; 0x67c <_ZN6myUart5writeEPcb>
    11b6:	40 e0       	ldi	r20, 0x00	; 0
    11b8:	60 e7       	ldi	r22, 0x70	; 112
    11ba:	77 e0       	ldi	r23, 0x07	; 7
    11bc:	ce 01       	movw	r24, r28
    11be:	85 59       	subi	r24, 0x95	; 149
    11c0:	9f 4f       	sbci	r25, 0xFF	; 255
    11c2:	0e 94 d8 04 	call	0x9b0	; 0x9b0 <_ZN11ServoEEPROM13getInitValuesEb>
    11c6:	41 e0       	ldi	r20, 0x01	; 1
    11c8:	b6 01       	movw	r22, r12
    11ca:	8e e6       	ldi	r24, 0x6E	; 110
    11cc:	97 e0       	ldi	r25, 0x07	; 7
    11ce:	0e 94 3e 03 	call	0x67c	; 0x67c <_ZN6myUart5writeEPcb>
			uart.write((char*)"Company:  \0"); uart.write((char*)initValues.getInitValues().company, true); 
    11d2:	40 e0       	ldi	r20, 0x00	; 0
    11d4:	6b eb       	ldi	r22, 0xBB	; 187
    11d6:	76 e0       	ldi	r23, 0x06	; 6
    11d8:	8e e6       	ldi	r24, 0x6E	; 110
    11da:	97 e0       	ldi	r25, 0x07	; 7
    11dc:	0e 94 3e 03 	call	0x67c	; 0x67c <_ZN6myUart5writeEPcb>
    11e0:	40 e0       	ldi	r20, 0x00	; 0
    11e2:	60 e7       	ldi	r22, 0x70	; 112
    11e4:	77 e0       	ldi	r23, 0x07	; 7
    11e6:	ce 01       	movw	r24, r28
    11e8:	85 59       	subi	r24, 0x95	; 149
    11ea:	9f 4f       	sbci	r25, 0xFF	; 255
    11ec:	0e 94 d8 04 	call	0x9b0	; 0x9b0 <_ZN11ServoEEPROM13getInitValuesEb>
    11f0:	41 e0       	ldi	r20, 0x01	; 1
    11f2:	b7 01       	movw	r22, r14
    11f4:	8e e6       	ldi	r24, 0x6E	; 110
    11f6:	97 e0       	ldi	r25, 0x07	; 7
    11f8:	0e 94 3e 03 	call	0x67c	; 0x67c <_ZN6myUart5writeEPcb>
			uart.write((char*)"Version:  \0"); uart.write(initValues.getInitValues().version, true);
    11fc:	40 e0       	ldi	r20, 0x00	; 0
    11fe:	67 ec       	ldi	r22, 0xC7	; 199
    1200:	76 e0       	ldi	r23, 0x06	; 6
    1202:	8e e6       	ldi	r24, 0x6E	; 110
    1204:	97 e0       	ldi	r25, 0x07	; 7
    1206:	0e 94 3e 03 	call	0x67c	; 0x67c <_ZN6myUart5writeEPcb>
    120a:	40 e0       	ldi	r20, 0x00	; 0
    120c:	60 e7       	ldi	r22, 0x70	; 112
    120e:	77 e0       	ldi	r23, 0x07	; 7
    1210:	ce 01       	movw	r24, r28
    1212:	85 59       	subi	r24, 0x95	; 149
    1214:	9f 4f       	sbci	r25, 0xFF	; 255
    1216:	0e 94 d8 04 	call	0x9b0	; 0x9b0 <_ZN11ServoEEPROM13getInitValuesEb>
    121a:	41 e0       	ldi	r20, 0x01	; 1
    121c:	b2 01       	movw	r22, r4
    121e:	8e e6       	ldi	r24, 0x6E	; 110
    1220:	97 e0       	ldi	r25, 0x07	; 7
    1222:	0e 94 3e 03 	call	0x67c	; 0x67c <_ZN6myUart5writeEPcb>
			uart.LfCr();
    1226:	8e e6       	ldi	r24, 0x6E	; 110
    1228:	97 e0       	ldi	r25, 0x07	; 7
    122a:	0e 94 f7 02 	call	0x5ee	; 0x5ee <_ZN6myUart4LfCrEv>
			uart.write((char*)"1 Servotype:  \0"); ServoTypeMenu(initValues.getInitValues().servoType);
    122e:	40 e0       	ldi	r20, 0x00	; 0
    1230:	63 ed       	ldi	r22, 0xD3	; 211
    1232:	76 e0       	ldi	r23, 0x06	; 6
    1234:	8e e6       	ldi	r24, 0x6E	; 110
    1236:	97 e0       	ldi	r25, 0x07	; 7
    1238:	0e 94 3e 03 	call	0x67c	; 0x67c <_ZN6myUart5writeEPcb>
    123c:	40 e0       	ldi	r20, 0x00	; 0
    123e:	60 e7       	ldi	r22, 0x70	; 112
    1240:	77 e0       	ldi	r23, 0x07	; 7
    1242:	ce 01       	movw	r24, r28
    1244:	85 59       	subi	r24, 0x95	; 149
    1246:	9f 4f       	sbci	r25, 0xFF	; 255
    1248:	0e 94 d8 04 	call	0x9b0	; 0x9b0 <_ZN11ServoEEPROM13getInitValuesEb>
    124c:	c6 56       	subi	r28, 0x66	; 102
    124e:	df 4f       	sbci	r29, 0xFF	; 255
    1250:	88 81       	ld	r24, Y
    1252:	99 81       	ldd	r25, Y+1	; 0x01
    1254:	ca 59       	subi	r28, 0x9A	; 154
    1256:	d0 40       	sbci	r29, 0x00	; 0
    1258:	0e 94 33 05 	call	0xa66	; 0xa66 <_ZN12usartHelpers13ServoTypeMenuE9ServoType>
			uart.write((char*)"2 Zeroing:    \0"); uart.write((uint16_t)initValues.getInitValues().SNullStellung); uart.write((char*)" degree\0", true);
    125c:	40 e0       	ldi	r20, 0x00	; 0
    125e:	63 ee       	ldi	r22, 0xE3	; 227
    1260:	76 e0       	ldi	r23, 0x06	; 6
    1262:	8e e6       	ldi	r24, 0x6E	; 110
    1264:	97 e0       	ldi	r25, 0x07	; 7
    1266:	0e 94 3e 03 	call	0x67c	; 0x67c <_ZN6myUart5writeEPcb>
    126a:	40 e0       	ldi	r20, 0x00	; 0
    126c:	60 e7       	ldi	r22, 0x70	; 112
    126e:	77 e0       	ldi	r23, 0x07	; 7
    1270:	ce 01       	movw	r24, r28
    1272:	85 59       	subi	r24, 0x95	; 149
    1274:	9f 4f       	sbci	r25, 0xFF	; 255
    1276:	0e 94 d8 04 	call	0x9b0	; 0x9b0 <_ZN11ServoEEPROM13getInitValuesEb>
    127a:	c4 56       	subi	r28, 0x64	; 100
    127c:	df 4f       	sbci	r29, 0xFF	; 255
    127e:	68 81       	ld	r22, Y
    1280:	cc 59       	subi	r28, 0x9C	; 156
    1282:	d0 40       	sbci	r29, 0x00	; 0
    1284:	06 2e       	mov	r0, r22
    1286:	00 0c       	add	r0, r0
    1288:	77 0b       	sbc	r23, r23
    128a:	40 e0       	ldi	r20, 0x00	; 0
    128c:	8e e6       	ldi	r24, 0x6E	; 110
    128e:	97 e0       	ldi	r25, 0x07	; 7
    1290:	0e 94 85 03 	call	0x70a	; 0x70a <_ZN6myUart5writeEjb>
    1294:	41 e0       	ldi	r20, 0x01	; 1
    1296:	69 e6       	ldi	r22, 0x69	; 105
    1298:	73 e0       	ldi	r23, 0x03	; 3
    129a:	8e e6       	ldi	r24, 0x6E	; 110
    129c:	97 e0       	ldi	r25, 0x07	; 7
    129e:	0e 94 3e 03 	call	0x67c	; 0x67c <_ZN6myUart5writeEPcb>
			uart.write((char*)"3 Anglerange: \0"); uart.write((uint16_t)initValues.getInitValues().AngleRange); uart.write((char*)" degree\0", true);
    12a2:	40 e0       	ldi	r20, 0x00	; 0
    12a4:	63 ef       	ldi	r22, 0xF3	; 243
    12a6:	76 e0       	ldi	r23, 0x06	; 6
    12a8:	8e e6       	ldi	r24, 0x6E	; 110
    12aa:	97 e0       	ldi	r25, 0x07	; 7
    12ac:	0e 94 3e 03 	call	0x67c	; 0x67c <_ZN6myUart5writeEPcb>
    12b0:	40 e0       	ldi	r20, 0x00	; 0
    12b2:	60 e7       	ldi	r22, 0x70	; 112
    12b4:	77 e0       	ldi	r23, 0x07	; 7
    12b6:	ce 01       	movw	r24, r28
    12b8:	85 59       	subi	r24, 0x95	; 149
    12ba:	9f 4f       	sbci	r25, 0xFF	; 255
    12bc:	0e 94 d8 04 	call	0x9b0	; 0x9b0 <_ZN11ServoEEPROM13getInitValuesEb>
    12c0:	c3 56       	subi	r28, 0x63	; 99
    12c2:	df 4f       	sbci	r29, 0xFF	; 255
    12c4:	68 81       	ld	r22, Y
    12c6:	cd 59       	subi	r28, 0x9D	; 157
    12c8:	d0 40       	sbci	r29, 0x00	; 0
    12ca:	70 e0       	ldi	r23, 0x00	; 0
    12cc:	40 e0       	ldi	r20, 0x00	; 0
    12ce:	8e e6       	ldi	r24, 0x6E	; 110
    12d0:	97 e0       	ldi	r25, 0x07	; 7
    12d2:	0e 94 85 03 	call	0x70a	; 0x70a <_ZN6myUart5writeEjb>
    12d6:	41 e0       	ldi	r20, 0x01	; 1
    12d8:	69 e6       	ldi	r22, 0x69	; 105
    12da:	73 e0       	ldi	r23, 0x03	; 3
    12dc:	8e e6       	ldi	r24, 0x6E	; 110
    12de:	97 e0       	ldi	r25, 0x07	; 7
    12e0:	0e 94 3e 03 	call	0x67c	; 0x67c <_ZN6myUart5writeEPcb>
			uart.write((char*)"4 PWM delay:  \0"); uart.write((uint16_t)initValues.getInitValues().PWMDelay); uart.write((char*)"ms\0", true);
    12e4:	40 e0       	ldi	r20, 0x00	; 0
    12e6:	63 e0       	ldi	r22, 0x03	; 3
    12e8:	77 e0       	ldi	r23, 0x07	; 7
    12ea:	8e e6       	ldi	r24, 0x6E	; 110
    12ec:	97 e0       	ldi	r25, 0x07	; 7
    12ee:	0e 94 3e 03 	call	0x67c	; 0x67c <_ZN6myUart5writeEPcb>
    12f2:	40 e0       	ldi	r20, 0x00	; 0
    12f4:	60 e7       	ldi	r22, 0x70	; 112
    12f6:	77 e0       	ldi	r23, 0x07	; 7
    12f8:	ce 01       	movw	r24, r28
    12fa:	85 59       	subi	r24, 0x95	; 149
    12fc:	9f 4f       	sbci	r25, 0xFF	; 255
    12fe:	0e 94 d8 04 	call	0x9b0	; 0x9b0 <_ZN11ServoEEPROM13getInitValuesEb>
    1302:	c2 56       	subi	r28, 0x62	; 98
    1304:	df 4f       	sbci	r29, 0xFF	; 255
    1306:	68 81       	ld	r22, Y
    1308:	79 81       	ldd	r23, Y+1	; 0x01
    130a:	ce 59       	subi	r28, 0x9E	; 158
    130c:	d0 40       	sbci	r29, 0x00	; 0
    130e:	40 e0       	ldi	r20, 0x00	; 0
    1310:	8e e6       	ldi	r24, 0x6E	; 110
    1312:	97 e0       	ldi	r25, 0x07	; 7
    1314:	0e 94 85 03 	call	0x70a	; 0x70a <_ZN6myUart5writeEjb>
    1318:	41 e0       	ldi	r20, 0x01	; 1
    131a:	6d ef       	ldi	r22, 0xFD	; 253
    131c:	75 e0       	ldi	r23, 0x05	; 5
    131e:	8e e6       	ldi	r24, 0x6E	; 110
    1320:	97 e0       	ldi	r25, 0x07	; 7
    1322:	0e 94 3e 03 	call	0x67c	; 0x67c <_ZN6myUart5writeEPcb>
			uart.LfCr();
    1326:	8e e6       	ldi	r24, 0x6E	; 110
    1328:	97 e0       	ldi	r25, 0x07	; 7
    132a:	0e 94 f7 02 	call	0x5ee	; 0x5ee <_ZN6myUart4LfCrEv>
			uart.write((char*)"5 Refresh menu-values\0", true);
    132e:	41 e0       	ldi	r20, 0x01	; 1
    1330:	63 e1       	ldi	r22, 0x13	; 19
    1332:	77 e0       	ldi	r23, 0x07	; 7
    1334:	8e e6       	ldi	r24, 0x6E	; 110
    1336:	97 e0       	ldi	r25, 0x07	; 7
    1338:	0e 94 3e 03 	call	0x67c	; 0x67c <_ZN6myUart5writeEPcb>
			uart.LfCr();
    133c:	8e e6       	ldi	r24, 0x6E	; 110
    133e:	97 e0       	ldi	r25, 0x07	; 7
    1340:	0e 94 f7 02 	call	0x5ee	; 0x5ee <_ZN6myUart4LfCrEv>
			changesMade = false;
			if(actv.servoType != initValues.getInitValues(false).servoType) changesMade = true;
    1344:	88 a8       	ldd	r8, Y+48	; 0x30
    1346:	99 a8       	ldd	r9, Y+49	; 0x31
    1348:	40 e0       	ldi	r20, 0x00	; 0
    134a:	60 e7       	ldi	r22, 0x70	; 112
    134c:	77 e0       	ldi	r23, 0x07	; 7
    134e:	ce 01       	movw	r24, r28
    1350:	85 59       	subi	r24, 0x95	; 149
    1352:	9f 4f       	sbci	r25, 0xFF	; 255
    1354:	0e 94 d8 04 	call	0x9b0	; 0x9b0 <_ZN11ServoEEPROM13getInitValuesEb>
    1358:	c6 56       	subi	r28, 0x66	; 102
    135a:	df 4f       	sbci	r29, 0xFF	; 255
    135c:	a8 80       	ld	r10, Y
    135e:	b9 80       	ldd	r11, Y+1	; 0x01
    1360:	ca 59       	subi	r28, 0x9A	; 154
    1362:	d0 40       	sbci	r29, 0x00	; 0
			if(actv.SNullStellung != initValues.getInitValues(false).SNullStellung) changesMade = true;
    1364:	7a a8       	ldd	r7, Y+50	; 0x32
    1366:	40 e0       	ldi	r20, 0x00	; 0
    1368:	60 e7       	ldi	r22, 0x70	; 112
    136a:	77 e0       	ldi	r23, 0x07	; 7
    136c:	ce 01       	movw	r24, r28
    136e:	85 59       	subi	r24, 0x95	; 149
    1370:	9f 4f       	sbci	r25, 0xFF	; 255
    1372:	0e 94 d8 04 	call	0x9b0	; 0x9b0 <_ZN11ServoEEPROM13getInitValuesEb>
    1376:	c4 56       	subi	r28, 0x64	; 100
    1378:	df 4f       	sbci	r29, 0xFF	; 255
    137a:	88 81       	ld	r24, Y
    137c:	cc 59       	subi	r28, 0x9C	; 156
    137e:	d0 40       	sbci	r29, 0x00	; 0
    1380:	78 12       	cpse	r7, r24
    1382:	06 c0       	rjmp	.+12     	; 0x1390 <_ZN12usartHelpers8MainMenuEv+0x2b6>
			uart.write((char*)"4 PWM delay:  \0"); uart.write((uint16_t)initValues.getInitValues().PWMDelay); uart.write((char*)"ms\0", true);
			uart.LfCr();
			uart.write((char*)"5 Refresh menu-values\0", true);
			uart.LfCr();
			changesMade = false;
			if(actv.servoType != initValues.getInitValues(false).servoType) changesMade = true;
    1384:	11 e0       	ldi	r17, 0x01	; 1
    1386:	8a 14       	cp	r8, r10
    1388:	9b 04       	cpc	r9, r11
    138a:	19 f4       	brne	.+6      	; 0x1392 <_ZN12usartHelpers8MainMenuEv+0x2b8>
    138c:	10 e0       	ldi	r17, 0x00	; 0
    138e:	01 c0       	rjmp	.+2      	; 0x1392 <_ZN12usartHelpers8MainMenuEv+0x2b8>
			if(actv.SNullStellung != initValues.getInitValues(false).SNullStellung) changesMade = true;
    1390:	11 e0       	ldi	r17, 0x01	; 1
			if(actv.AngleRange != initValues.getInitValues(false).AngleRange) changesMade = true;
    1392:	bb a8       	ldd	r11, Y+51	; 0x33
    1394:	40 e0       	ldi	r20, 0x00	; 0
    1396:	60 e7       	ldi	r22, 0x70	; 112
    1398:	77 e0       	ldi	r23, 0x07	; 7
    139a:	ce 01       	movw	r24, r28
    139c:	85 59       	subi	r24, 0x95	; 149
    139e:	9f 4f       	sbci	r25, 0xFF	; 255
    13a0:	0e 94 d8 04 	call	0x9b0	; 0x9b0 <_ZN11ServoEEPROM13getInitValuesEb>
    13a4:	c3 56       	subi	r28, 0x63	; 99
    13a6:	df 4f       	sbci	r29, 0xFF	; 255
    13a8:	88 81       	ld	r24, Y
    13aa:	cd 59       	subi	r28, 0x9D	; 157
    13ac:	d0 40       	sbci	r29, 0x00	; 0
    13ae:	b8 12       	cpse	r11, r24
    13b0:	99 c0       	rjmp	.+306    	; 0x14e4 <_ZN12usartHelpers8MainMenuEv+0x40a>
			if(actv.PWMDelay != initValues.getInitValues(false).PWMDelay) changesMade = true;
    13b2:	ac a8       	ldd	r10, Y+52	; 0x34
    13b4:	bd a8       	ldd	r11, Y+53	; 0x35
    13b6:	40 e0       	ldi	r20, 0x00	; 0
    13b8:	60 e7       	ldi	r22, 0x70	; 112
    13ba:	77 e0       	ldi	r23, 0x07	; 7
    13bc:	ce 01       	movw	r24, r28
    13be:	85 59       	subi	r24, 0x95	; 149
    13c0:	9f 4f       	sbci	r25, 0xFF	; 255
    13c2:	0e 94 d8 04 	call	0x9b0	; 0x9b0 <_ZN11ServoEEPROM13getInitValuesEb>
    13c6:	c2 56       	subi	r28, 0x62	; 98
    13c8:	df 4f       	sbci	r29, 0xFF	; 255
    13ca:	88 81       	ld	r24, Y
    13cc:	99 81       	ldd	r25, Y+1	; 0x01
    13ce:	ce 59       	subi	r28, 0x9E	; 158
    13d0:	d0 40       	sbci	r29, 0x00	; 0
    13d2:	a8 16       	cp	r10, r24
    13d4:	b9 06       	cpc	r11, r25
    13d6:	11 f4       	brne	.+4      	; 0x13dc <_ZN12usartHelpers8MainMenuEv+0x302>

			if (changesMade) uart.write((char*)"s Save changes to EEPROM\0", true);			
    13d8:	11 23       	and	r17, r17
    13da:	51 f1       	breq	.+84     	; 0x1430 <_ZN12usartHelpers8MainMenuEv+0x356>
    13dc:	41 e0       	ldi	r20, 0x01	; 1
    13de:	6a e2       	ldi	r22, 0x2A	; 42
    13e0:	77 e0       	ldi	r23, 0x07	; 7
    13e2:	8e e6       	ldi	r24, 0x6E	; 110
    13e4:	97 e0       	ldi	r25, 0x07	; 7
    13e6:	0e 94 3e 03 	call	0x67c	; 0x67c <_ZN6myUart5writeEPcb>
			uart.write((char*)"q Exit", true);
    13ea:	41 e0       	ldi	r20, 0x01	; 1
    13ec:	67 e6       	ldi	r22, 0x67	; 103
    13ee:	77 e0       	ldi	r23, 0x07	; 7
    13f0:	8e e6       	ldi	r24, 0x6E	; 110
    13f2:	97 e0       	ldi	r25, 0x07	; 7
    13f4:	0e 94 3e 03 	call	0x67c	; 0x67c <_ZN6myUart5writeEPcb>
			uart.write((char*)"Select-->\0", false);
    13f8:	40 e0       	ldi	r20, 0x00	; 0
    13fa:	62 e9       	ldi	r22, 0x92	; 146
    13fc:	72 e0       	ldi	r23, 0x02	; 2
    13fe:	8e e6       	ldi	r24, 0x6E	; 110
    1400:	97 e0       	ldi	r25, 0x07	; 7
    1402:	0e 94 3e 03 	call	0x67c	; 0x67c <_ZN6myUart5writeEPcb>
			x = uart.read();
    1406:	8e e6       	ldi	r24, 0x6E	; 110
    1408:	97 e0       	ldi	r25, 0x07	; 7
    140a:	0e 94 e3 02 	call	0x5c6	; 0x5c6 <_ZN6myUart4readEv>
			switch (x) {
    140e:	83 33       	cpi	r24, 0x33	; 51
    1410:	c9 f1       	breq	.+114    	; 0x1484 <_ZN12usartHelpers8MainMenuEv+0x3aa>
    1412:	28 f4       	brcc	.+10     	; 0x141e <_ZN12usartHelpers8MainMenuEv+0x344>
    1414:	81 33       	cpi	r24, 0x31	; 49
    1416:	81 f1       	breq	.+96     	; 0x1478 <_ZN12usartHelpers8MainMenuEv+0x39e>
    1418:	82 33       	cpi	r24, 0x32	; 50
    141a:	89 f1       	breq	.+98     	; 0x147e <_ZN12usartHelpers8MainMenuEv+0x3a4>
    141c:	9b ce       	rjmp	.-714    	; 0x1154 <_ZN12usartHelpers8MainMenuEv+0x7a>
    141e:	81 37       	cpi	r24, 0x71	; 113
    1420:	09 f4       	brne	.+2      	; 0x1424 <_ZN12usartHelpers8MainMenuEv+0x34a>
    1422:	69 c0       	rjmp	.+210    	; 0x14f6 <_ZN12usartHelpers8MainMenuEv+0x41c>
    1424:	83 37       	cpi	r24, 0x73	; 115
    1426:	a1 f1       	breq	.+104    	; 0x1490 <_ZN12usartHelpers8MainMenuEv+0x3b6>
    1428:	84 33       	cpi	r24, 0x34	; 52
    142a:	09 f0       	breq	.+2      	; 0x142e <_ZN12usartHelpers8MainMenuEv+0x354>
    142c:	93 ce       	rjmp	.-730    	; 0x1154 <_ZN12usartHelpers8MainMenuEv+0x7a>
    142e:	2d c0       	rjmp	.+90     	; 0x148a <_ZN12usartHelpers8MainMenuEv+0x3b0>
			if(actv.SNullStellung != initValues.getInitValues(false).SNullStellung) changesMade = true;
			if(actv.AngleRange != initValues.getInitValues(false).AngleRange) changesMade = true;
			if(actv.PWMDelay != initValues.getInitValues(false).PWMDelay) changesMade = true;

			if (changesMade) uart.write((char*)"s Save changes to EEPROM\0", true);			
			uart.write((char*)"q Exit", true);
    1430:	41 e0       	ldi	r20, 0x01	; 1
    1432:	67 e6       	ldi	r22, 0x67	; 103
    1434:	77 e0       	ldi	r23, 0x07	; 7
    1436:	8e e6       	ldi	r24, 0x6E	; 110
    1438:	97 e0       	ldi	r25, 0x07	; 7
    143a:	0e 94 3e 03 	call	0x67c	; 0x67c <_ZN6myUart5writeEPcb>
			uart.write((char*)"Select-->\0", false);
    143e:	40 e0       	ldi	r20, 0x00	; 0
    1440:	62 e9       	ldi	r22, 0x92	; 146
    1442:	72 e0       	ldi	r23, 0x02	; 2
    1444:	8e e6       	ldi	r24, 0x6E	; 110
    1446:	97 e0       	ldi	r25, 0x07	; 7
    1448:	0e 94 3e 03 	call	0x67c	; 0x67c <_ZN6myUart5writeEPcb>
			x = uart.read();
    144c:	8e e6       	ldi	r24, 0x6E	; 110
    144e:	97 e0       	ldi	r25, 0x07	; 7
    1450:	0e 94 e3 02 	call	0x5c6	; 0x5c6 <_ZN6myUart4readEv>
			switch (x) {
    1454:	83 33       	cpi	r24, 0x33	; 51
    1456:	b1 f0       	breq	.+44     	; 0x1484 <_ZN12usartHelpers8MainMenuEv+0x3aa>
    1458:	28 f4       	brcc	.+10     	; 0x1464 <_ZN12usartHelpers8MainMenuEv+0x38a>
    145a:	81 33       	cpi	r24, 0x31	; 49
    145c:	69 f0       	breq	.+26     	; 0x1478 <_ZN12usartHelpers8MainMenuEv+0x39e>
    145e:	82 33       	cpi	r24, 0x32	; 50
    1460:	71 f0       	breq	.+28     	; 0x147e <_ZN12usartHelpers8MainMenuEv+0x3a4>
    1462:	78 ce       	rjmp	.-784    	; 0x1154 <_ZN12usartHelpers8MainMenuEv+0x7a>
    1464:	81 37       	cpi	r24, 0x71	; 113
    1466:	09 f4       	brne	.+2      	; 0x146a <_ZN12usartHelpers8MainMenuEv+0x390>
    1468:	46 c0       	rjmp	.+140    	; 0x14f6 <_ZN12usartHelpers8MainMenuEv+0x41c>
    146a:	83 37       	cpi	r24, 0x73	; 115
    146c:	09 f4       	brne	.+2      	; 0x1470 <_ZN12usartHelpers8MainMenuEv+0x396>
    146e:	75 ce       	rjmp	.-790    	; 0x115a <_ZN12usartHelpers8MainMenuEv+0x80>
    1470:	84 33       	cpi	r24, 0x34	; 52
    1472:	09 f0       	breq	.+2      	; 0x1476 <_ZN12usartHelpers8MainMenuEv+0x39c>
    1474:	6f ce       	rjmp	.-802    	; 0x1154 <_ZN12usartHelpers8MainMenuEv+0x7a>
    1476:	09 c0       	rjmp	.+18     	; 0x148a <_ZN12usartHelpers8MainMenuEv+0x3b0>
							} // switch
						} // while
					} // if (changesMade)
					break;
				 case '1':
					ChangeServoType();
    1478:	0e 94 61 05 	call	0xac2	; 0xac2 <_ZN12usartHelpers15ChangeServoTypeEv>
					break;
    147c:	6e ce       	rjmp	.-804    	; 0x115a <_ZN12usartHelpers8MainMenuEv+0x80>
				 case '2':
					ChangeNullstellung();
    147e:	0e 94 21 06 	call	0xc42	; 0xc42 <_ZN12usartHelpers18ChangeNullstellungEv>
					break;
    1482:	6b ce       	rjmp	.-810    	; 0x115a <_ZN12usartHelpers8MainMenuEv+0x80>
				 case '3':
					ChangeAngleRange();
    1484:	0e 94 10 07 	call	0xe20	; 0xe20 <_ZN12usartHelpers16ChangeAngleRangeEv>
					break;
    1488:	68 ce       	rjmp	.-816    	; 0x115a <_ZN12usartHelpers8MainMenuEv+0x80>
				case '4':
					ChangePWMDelay();
    148a:	0e 94 e6 07 	call	0xfcc	; 0xfcc <_ZN12usartHelpers14ChangePWMDelayEv>
					break;
    148e:	65 ce       	rjmp	.-822    	; 0x115a <_ZN12usartHelpers8MainMenuEv+0x80>
				case '5':
					break;
				case 's':
					if (changesMade) {
						initValues.setInitValues(initValues.getInitValues(false));
    1490:	40 e0       	ldi	r20, 0x00	; 0
    1492:	60 e7       	ldi	r22, 0x70	; 112
    1494:	77 e0       	ldi	r23, 0x07	; 7
    1496:	ce 01       	movw	r24, r28
    1498:	c6 96       	adiw	r24, 0x36	; 54
    149a:	0e 94 d8 04 	call	0x9b0	; 0x9b0 <_ZN11ServoEEPROM13getInitValuesEb>
    149e:	8d b7       	in	r24, 0x3d	; 61
    14a0:	9e b7       	in	r25, 0x3e	; 62
    14a2:	c5 97       	sbiw	r24, 0x35	; 53
    14a4:	0f b6       	in	r0, 0x3f	; 63
    14a6:	f8 94       	cli
    14a8:	9e bf       	out	0x3e, r25	; 62
    14aa:	0f be       	out	0x3f, r0	; 63
    14ac:	8d bf       	out	0x3d, r24	; 61
    14ae:	ad b7       	in	r26, 0x3d	; 61
    14b0:	be b7       	in	r27, 0x3e	; 62
    14b2:	11 96       	adiw	r26, 0x01	; 1
    14b4:	85 e3       	ldi	r24, 0x35	; 53
    14b6:	fe 01       	movw	r30, r28
    14b8:	f6 96       	adiw	r30, 0x36	; 54
    14ba:	01 90       	ld	r0, Z+
    14bc:	0d 92       	st	X+, r0
    14be:	8a 95       	dec	r24
    14c0:	e1 f7       	brne	.-8      	; 0x14ba <_ZN12usartHelpers8MainMenuEv+0x3e0>
    14c2:	80 e7       	ldi	r24, 0x70	; 112
    14c4:	97 e0       	ldi	r25, 0x07	; 7
    14c6:	0e 94 fa 04 	call	0x9f4	; 0x9f4 <_ZN11ServoEEPROM13setInitValuesE17EEPROM_initValues>
						actv = initValues.getInitValues(false);
    14ca:	0f b6       	in	r0, 0x3f	; 63
    14cc:	f8 94       	cli
    14ce:	de bf       	out	0x3e, r29	; 62
    14d0:	0f be       	out	0x3f, r0	; 63
    14d2:	cd bf       	out	0x3d, r28	; 61
    14d4:	40 e0       	ldi	r20, 0x00	; 0
    14d6:	60 e7       	ldi	r22, 0x70	; 112
    14d8:	77 e0       	ldi	r23, 0x07	; 7
    14da:	ce 01       	movw	r24, r28
    14dc:	01 96       	adiw	r24, 0x01	; 1
    14de:	0e 94 d8 04 	call	0x9b0	; 0x9b0 <_ZN11ServoEEPROM13getInitValuesEb>
    14e2:	3b ce       	rjmp	.-906    	; 0x115a <_ZN12usartHelpers8MainMenuEv+0x80>
			uart.LfCr();
			changesMade = false;
			if(actv.servoType != initValues.getInitValues(false).servoType) changesMade = true;
			if(actv.SNullStellung != initValues.getInitValues(false).SNullStellung) changesMade = true;
			if(actv.AngleRange != initValues.getInitValues(false).AngleRange) changesMade = true;
			if(actv.PWMDelay != initValues.getInitValues(false).PWMDelay) changesMade = true;
    14e4:	40 e0       	ldi	r20, 0x00	; 0
    14e6:	60 e7       	ldi	r22, 0x70	; 112
    14e8:	77 e0       	ldi	r23, 0x07	; 7
    14ea:	ce 01       	movw	r24, r28
    14ec:	85 59       	subi	r24, 0x95	; 149
    14ee:	9f 4f       	sbci	r25, 0xFF	; 255
    14f0:	0e 94 d8 04 	call	0x9b0	; 0x9b0 <_ZN11ServoEEPROM13getInitValuesEb>
    14f4:	73 cf       	rjmp	.-282    	; 0x13dc <_ZN12usartHelpers8MainMenuEv+0x302>
						actv = initValues.getInitValues(false);
					}
					break;
			 } // switch
		 } // while (x != 'q')
	 }
    14f6:	c1 56       	subi	r28, 0x61	; 97
    14f8:	df 4f       	sbci	r29, 0xFF	; 255
    14fa:	0f b6       	in	r0, 0x3f	; 63
    14fc:	f8 94       	cli
    14fe:	de bf       	out	0x3e, r29	; 62
    1500:	0f be       	out	0x3f, r0	; 63
    1502:	cd bf       	out	0x3d, r28	; 61
    1504:	df 91       	pop	r29
    1506:	cf 91       	pop	r28
    1508:	1f 91       	pop	r17
    150a:	ff 90       	pop	r15
    150c:	ef 90       	pop	r14
    150e:	df 90       	pop	r13
    1510:	cf 90       	pop	r12
    1512:	bf 90       	pop	r11
    1514:	af 90       	pop	r10
    1516:	9f 90       	pop	r9
    1518:	8f 90       	pop	r8
    151a:	7f 90       	pop	r7
    151c:	5f 90       	pop	r5
    151e:	4f 90       	pop	r4
    1520:	08 95       	ret

00001522 <__tablejump2__>:
    1522:	ee 0f       	add	r30, r30
    1524:	ff 1f       	adc	r31, r31
    1526:	05 90       	lpm	r0, Z+
    1528:	f4 91       	lpm	r31, Z
    152a:	e0 2d       	mov	r30, r0
    152c:	09 94       	ijmp

0000152e <atoi>:
    152e:	fc 01       	movw	r30, r24
    1530:	88 27       	eor	r24, r24
    1532:	99 27       	eor	r25, r25
    1534:	e8 94       	clt
    1536:	21 91       	ld	r18, Z+
    1538:	20 32       	cpi	r18, 0x20	; 32
    153a:	e9 f3       	breq	.-6      	; 0x1536 <atoi+0x8>
    153c:	29 30       	cpi	r18, 0x09	; 9
    153e:	10 f0       	brcs	.+4      	; 0x1544 <atoi+0x16>
    1540:	2e 30       	cpi	r18, 0x0E	; 14
    1542:	c8 f3       	brcs	.-14     	; 0x1536 <atoi+0x8>
    1544:	2b 32       	cpi	r18, 0x2B	; 43
    1546:	41 f0       	breq	.+16     	; 0x1558 <atoi+0x2a>
    1548:	2d 32       	cpi	r18, 0x2D	; 45
    154a:	39 f4       	brne	.+14     	; 0x155a <atoi+0x2c>
    154c:	68 94       	set
    154e:	04 c0       	rjmp	.+8      	; 0x1558 <atoi+0x2a>
    1550:	0e 94 c0 0a 	call	0x1580	; 0x1580 <__mulhi_const_10>
    1554:	82 0f       	add	r24, r18
    1556:	91 1d       	adc	r25, r1
    1558:	21 91       	ld	r18, Z+
    155a:	20 53       	subi	r18, 0x30	; 48
    155c:	2a 30       	cpi	r18, 0x0A	; 10
    155e:	c0 f3       	brcs	.-16     	; 0x1550 <atoi+0x22>
    1560:	1e f4       	brtc	.+6      	; 0x1568 <atoi+0x3a>
    1562:	90 95       	com	r25
    1564:	81 95       	neg	r24
    1566:	9f 4f       	sbci	r25, 0xFF	; 255
    1568:	08 95       	ret

0000156a <__itoa_ncheck>:
    156a:	bb 27       	eor	r27, r27
    156c:	4a 30       	cpi	r20, 0x0A	; 10
    156e:	31 f4       	brne	.+12     	; 0x157c <__itoa_ncheck+0x12>
    1570:	99 23       	and	r25, r25
    1572:	22 f4       	brpl	.+8      	; 0x157c <__itoa_ncheck+0x12>
    1574:	bd e2       	ldi	r27, 0x2D	; 45
    1576:	90 95       	com	r25
    1578:	81 95       	neg	r24
    157a:	9f 4f       	sbci	r25, 0xFF	; 255
    157c:	0c 94 c9 0a 	jmp	0x1592	; 0x1592 <__utoa_common>

00001580 <__mulhi_const_10>:
    1580:	7a e0       	ldi	r23, 0x0A	; 10
    1582:	97 9f       	mul	r25, r23
    1584:	90 2d       	mov	r25, r0
    1586:	87 9f       	mul	r24, r23
    1588:	80 2d       	mov	r24, r0
    158a:	91 0d       	add	r25, r1
    158c:	11 24       	eor	r1, r1
    158e:	08 95       	ret

00001590 <__utoa_ncheck>:
    1590:	bb 27       	eor	r27, r27

00001592 <__utoa_common>:
    1592:	fb 01       	movw	r30, r22
    1594:	55 27       	eor	r21, r21
    1596:	aa 27       	eor	r26, r26
    1598:	88 0f       	add	r24, r24
    159a:	99 1f       	adc	r25, r25
    159c:	aa 1f       	adc	r26, r26
    159e:	a4 17       	cp	r26, r20
    15a0:	10 f0       	brcs	.+4      	; 0x15a6 <__utoa_common+0x14>
    15a2:	a4 1b       	sub	r26, r20
    15a4:	83 95       	inc	r24
    15a6:	50 51       	subi	r21, 0x10	; 16
    15a8:	b9 f7       	brne	.-18     	; 0x1598 <__utoa_common+0x6>
    15aa:	a0 5d       	subi	r26, 0xD0	; 208
    15ac:	aa 33       	cpi	r26, 0x3A	; 58
    15ae:	08 f0       	brcs	.+2      	; 0x15b2 <__utoa_common+0x20>
    15b0:	a9 5d       	subi	r26, 0xD9	; 217
    15b2:	a1 93       	st	Z+, r26
    15b4:	00 97       	sbiw	r24, 0x00	; 0
    15b6:	79 f7       	brne	.-34     	; 0x1596 <__utoa_common+0x4>
    15b8:	b1 11       	cpse	r27, r1
    15ba:	b1 93       	st	Z+, r27
    15bc:	11 92       	st	Z+, r1
    15be:	cb 01       	movw	r24, r22
    15c0:	0c 94 e2 0a 	jmp	0x15c4	; 0x15c4 <strrev>

000015c4 <strrev>:
    15c4:	dc 01       	movw	r26, r24
    15c6:	fc 01       	movw	r30, r24
    15c8:	67 2f       	mov	r22, r23
    15ca:	71 91       	ld	r23, Z+
    15cc:	77 23       	and	r23, r23
    15ce:	e1 f7       	brne	.-8      	; 0x15c8 <strrev+0x4>
    15d0:	32 97       	sbiw	r30, 0x02	; 2
    15d2:	04 c0       	rjmp	.+8      	; 0x15dc <strrev+0x18>
    15d4:	7c 91       	ld	r23, X
    15d6:	6d 93       	st	X+, r22
    15d8:	70 83       	st	Z, r23
    15da:	62 91       	ld	r22, -Z
    15dc:	ae 17       	cp	r26, r30
    15de:	bf 07       	cpc	r27, r31
    15e0:	c8 f3       	brcs	.-14     	; 0x15d4 <strrev+0x10>
    15e2:	08 95       	ret

000015e4 <eeprom_read_block>:
    15e4:	dc 01       	movw	r26, r24
    15e6:	cb 01       	movw	r24, r22

000015e8 <eeprom_read_blraw>:
    15e8:	fc 01       	movw	r30, r24
    15ea:	f9 99       	sbic	0x1f, 1	; 31
    15ec:	fe cf       	rjmp	.-4      	; 0x15ea <eeprom_read_blraw+0x2>
    15ee:	06 c0       	rjmp	.+12     	; 0x15fc <eeprom_read_blraw+0x14>
    15f0:	f2 bd       	out	0x22, r31	; 34
    15f2:	e1 bd       	out	0x21, r30	; 33
    15f4:	f8 9a       	sbi	0x1f, 0	; 31
    15f6:	31 96       	adiw	r30, 0x01	; 1
    15f8:	00 b4       	in	r0, 0x20	; 32
    15fa:	0d 92       	st	X+, r0
    15fc:	41 50       	subi	r20, 0x01	; 1
    15fe:	50 40       	sbci	r21, 0x00	; 0
    1600:	b8 f7       	brcc	.-18     	; 0x15f0 <eeprom_read_blraw+0x8>
    1602:	08 95       	ret

00001604 <eeprom_update_block>:
    1604:	dc 01       	movw	r26, r24
    1606:	a4 0f       	add	r26, r20
    1608:	b5 1f       	adc	r27, r21
    160a:	41 50       	subi	r20, 0x01	; 1
    160c:	50 40       	sbci	r21, 0x00	; 0
    160e:	48 f0       	brcs	.+18     	; 0x1622 <eeprom_update_block+0x1e>
    1610:	cb 01       	movw	r24, r22
    1612:	84 0f       	add	r24, r20
    1614:	95 1f       	adc	r25, r21
    1616:	2e 91       	ld	r18, -X
    1618:	0e 94 13 0b 	call	0x1626	; 0x1626 <eeprom_update_r18>
    161c:	41 50       	subi	r20, 0x01	; 1
    161e:	50 40       	sbci	r21, 0x00	; 0
    1620:	d0 f7       	brcc	.-12     	; 0x1616 <eeprom_update_block+0x12>
    1622:	08 95       	ret

00001624 <eeprom_update_byte>:
    1624:	26 2f       	mov	r18, r22

00001626 <eeprom_update_r18>:
    1626:	f9 99       	sbic	0x1f, 1	; 31
    1628:	fe cf       	rjmp	.-4      	; 0x1626 <eeprom_update_r18>
    162a:	92 bd       	out	0x22, r25	; 34
    162c:	81 bd       	out	0x21, r24	; 33
    162e:	f8 9a       	sbi	0x1f, 0	; 31
    1630:	01 97       	sbiw	r24, 0x01	; 1
    1632:	00 b4       	in	r0, 0x20	; 32
    1634:	02 16       	cp	r0, r18
    1636:	39 f0       	breq	.+14     	; 0x1646 <eeprom_update_r18+0x20>
    1638:	1f ba       	out	0x1f, r1	; 31
    163a:	20 bd       	out	0x20, r18	; 32
    163c:	0f b6       	in	r0, 0x3f	; 63
    163e:	f8 94       	cli
    1640:	fa 9a       	sbi	0x1f, 2	; 31
    1642:	f9 9a       	sbi	0x1f, 1	; 31
    1644:	0f be       	out	0x3f, r0	; 63
    1646:	08 95       	ret

00001648 <__do_global_dtors>:
    1648:	10 e0       	ldi	r17, 0x00	; 0
    164a:	c5 e3       	ldi	r28, 0x35	; 53
    164c:	d0 e0       	ldi	r29, 0x00	; 0
    164e:	04 c0       	rjmp	.+8      	; 0x1658 <__do_global_dtors+0x10>
    1650:	fe 01       	movw	r30, r28
    1652:	0e 94 91 0a 	call	0x1522	; 0x1522 <__tablejump2__>
    1656:	21 96       	adiw	r28, 0x01	; 1
    1658:	c6 33       	cpi	r28, 0x36	; 54
    165a:	d1 07       	cpc	r29, r17
    165c:	c9 f7       	brne	.-14     	; 0x1650 <__do_global_dtors+0x8>
    165e:	f8 94       	cli

00001660 <__stop_program>:
    1660:	ff cf       	rjmp	.-2      	; 0x1660 <__stop_program>
